
VINDSTYRKA_Nucleo.elf:     file format elf32-littlearm

Sections:
Idx Name          Size      VMA       LMA       File off  Algn
  0 .isr_vector   00000194  08000000  08000000  00001000  2**0
                  CONTENTS, ALLOC, LOAD, READONLY, DATA
  1 .text         00002fd8  08000194  08000194  00001194  2**2
                  CONTENTS, ALLOC, LOAD, READONLY, CODE
  2 .rodata       00000078  0800316c  0800316c  0000416c  2**2
                  CONTENTS, ALLOC, LOAD, READONLY, DATA
  3 .ARM.extab    00000000  080031e4  080031e4  00005010  2**0
                  CONTENTS
  4 .ARM          00000000  080031e4  080031e4  00005010  2**0
                  CONTENTS
  5 .preinit_array 00000000  080031e4  080031e4  00005010  2**0
                  CONTENTS, ALLOC, LOAD, DATA
  6 .init_array   00000004  080031e4  080031e4  000041e4  2**2
                  CONTENTS, ALLOC, LOAD, READONLY, DATA
  7 .fini_array   00000004  080031e8  080031e8  000041e8  2**2
                  CONTENTS, ALLOC, LOAD, READONLY, DATA
  8 .data         00000010  20000000  080031ec  00005000  2**2
                  CONTENTS, ALLOC, LOAD, DATA
  9 .ccmram       00000000  10000000  10000000  00005010  2**0
                  CONTENTS
 10 .bss          00000164  20000010  20000010  00005010  2**2
                  ALLOC
 11 ._user_heap_stack 00000604  20000174  20000174  00005010  2**0
                  ALLOC
 12 .ARM.attributes 00000030  00000000  00000000  00005010  2**0
                  CONTENTS, READONLY
 13 .comment      00000043  00000000  00000000  00005040  2**0
                  CONTENTS, READONLY
 14 .debug_line   0000007a  00000000  00000000  00005083  2**0
                  CONTENTS, READONLY, DEBUGGING, OCTETS
 15 .debug_line_str 00000057  00000000  00000000  000050fd  2**0
                  CONTENTS, READONLY, DEBUGGING, OCTETS
 16 .debug_info   00000030  00000000  00000000  00005154  2**0
                  CONTENTS, READONLY, DEBUGGING, OCTETS
 17 .debug_abbrev 00000024  00000000  00000000  00005184  2**0
                  CONTENTS, READONLY, DEBUGGING, OCTETS
 18 .debug_aranges 00000028  00000000  00000000  000051a8  2**3
                  CONTENTS, READONLY, DEBUGGING, OCTETS
 19 .debug_str    00000073  00000000  00000000  000051d0  2**0
                  CONTENTS, READONLY, DEBUGGING, OCTETS
 20 .debug_rnglists 00000019  00000000  00000000  00005243  2**0
                  CONTENTS, READONLY, DEBUGGING, OCTETS
 21 .debug_frame  0000004c  00000000  00000000  0000525c  2**2
                  CONTENTS, READONLY, DEBUGGING, OCTETS

Disassembly of section .text:

08000194 <__do_global_dtors_aux>:
 8000194:	b510      	push	{r4, lr}
 8000196:	4c05      	ldr	r4, [pc, #20]	@ (80001ac <__do_global_dtors_aux+0x18>)
 8000198:	7823      	ldrb	r3, [r4, #0]
 800019a:	b933      	cbnz	r3, 80001aa <__do_global_dtors_aux+0x16>
 800019c:	4b04      	ldr	r3, [pc, #16]	@ (80001b0 <__do_global_dtors_aux+0x1c>)
 800019e:	b113      	cbz	r3, 80001a6 <__do_global_dtors_aux+0x12>
 80001a0:	4804      	ldr	r0, [pc, #16]	@ (80001b4 <__do_global_dtors_aux+0x20>)
 80001a2:	f3af 8000 	nop.w
 80001a6:	2301      	movs	r3, #1
 80001a8:	7023      	strb	r3, [r4, #0]
 80001aa:	bd10      	pop	{r4, pc}
 80001ac:	20000010 	.word	0x20000010
 80001b0:	00000000 	.word	0x00000000
 80001b4:	08003154 	.word	0x08003154

080001b8 <frame_dummy>:
 80001b8:	b508      	push	{r3, lr}
 80001ba:	4b03      	ldr	r3, [pc, #12]	@ (80001c8 <frame_dummy+0x10>)
 80001bc:	b11b      	cbz	r3, 80001c6 <frame_dummy+0xe>
 80001be:	4903      	ldr	r1, [pc, #12]	@ (80001cc <frame_dummy+0x14>)
 80001c0:	4803      	ldr	r0, [pc, #12]	@ (80001d0 <frame_dummy+0x18>)
 80001c2:	f3af 8000 	nop.w
 80001c6:	bd08      	pop	{r3, pc}
 80001c8:	00000000 	.word	0x00000000
 80001cc:	20000014 	.word	0x20000014
 80001d0:	08003154 	.word	0x08003154

080001d4 <InitCom>:
 80001d4:	4b0b      	ldr	r3, [pc, #44]	@ (8000204 <InitCom+0x30>)
 80001d6:	461a      	mov	r2, r3
 80001d8:	f103 0118 	add.w	r1, r3, #24
 80001dc:	b410      	push	{r4}
 80001de:	f842 1b36 	str.w	r1, [r2], #54
 80001e2:	f103 0454 	add.w	r4, r3, #84	@ 0x54
 80001e6:	e9c3 2401 	strd	r2, r4, [r3, #4]
 80001ea:	f103 0072 	add.w	r0, r3, #114	@ 0x72
 80001ee:	f103 0190 	add.w	r1, r3, #144	@ 0x90
 80001f2:	f103 02ae 	add.w	r2, r3, #174	@ 0xae
 80001f6:	e9c3 0103 	strd	r0, r1, [r3, #12]
 80001fa:	f85d 4b04 	ldr.w	r4, [sp], #4
 80001fe:	615a      	str	r2, [r3, #20]
 8000200:	4770      	bx	lr
 8000202:	bf00      	nop
 8000204:	2000002c 	.word	0x2000002c

08000208 <R_bufferFull>:
 8000208:	4a04      	ldr	r2, [pc, #16]	@ (800021c <R_bufferFull+0x14>)
 800020a:	4b05      	ldr	r3, [pc, #20]	@ (8000220 <R_bufferFull+0x18>)
 800020c:	f892 00cc 	ldrb.w	r0, [r2, #204]	@ 0xcc
 8000210:	781b      	ldrb	r3, [r3, #0]
 8000212:	1ac0      	subs	r0, r0, r3
 8000214:	fab0 f080 	clz	r0, r0
 8000218:	0940      	lsrs	r0, r0, #5
 800021a:	4770      	bx	lr
 800021c:	2000002c 	.word	0x2000002c
 8000220:	20000000 	.word	0x20000000

08000224 <R_bufferEmpty>:
 8000224:	4a09      	ldr	r2, [pc, #36]	@ (800024c <R_bufferEmpty+0x28>)
 8000226:	4b0a      	ldr	r3, [pc, #40]	@ (8000250 <R_bufferEmpty+0x2c>)
 8000228:	7812      	ldrb	r2, [r2, #0]
 800022a:	490a      	ldr	r1, [pc, #40]	@ (8000254 <R_bufferEmpty+0x30>)
 800022c:	3201      	adds	r2, #1
 800022e:	fba3 0302 	umull	r0, r3, r3, r2
 8000232:	089b      	lsrs	r3, r3, #2
 8000234:	f891 00cc 	ldrb.w	r0, [r1, #204]	@ 0xcc
 8000238:	eb03 0343 	add.w	r3, r3, r3, lsl #1
 800023c:	eba2 0243 	sub.w	r2, r2, r3, lsl #1
 8000240:	1a10      	subs	r0, r2, r0
 8000242:	fab0 f080 	clz	r0, r0
 8000246:	0940      	lsrs	r0, r0, #5
 8000248:	4770      	bx	lr
 800024a:	bf00      	nop
 800024c:	20000000 	.word	0x20000000
 8000250:	aaaaaaab 	.word	0xaaaaaaab
 8000254:	2000002c 	.word	0x2000002c

08000258 <R_Push>:
 8000258:	4a0f      	ldr	r2, [pc, #60]	@ (8000298 <R_Push+0x40>)
 800025a:	4b10      	ldr	r3, [pc, #64]	@ (800029c <R_Push+0x44>)
 800025c:	f892 10cc 	ldrb.w	r1, [r2, #204]	@ 0xcc
 8000260:	781b      	ldrb	r3, [r3, #0]
 8000262:	428b      	cmp	r3, r1
 8000264:	d015      	beq.n	8000292 <R_Push+0x3a>
 8000266:	f852 3021 	ldr.w	r3, [r2, r1, lsl #2]
 800026a:	b410      	push	{r4}
 800026c:	6804      	ldr	r4, [r0, #0]
 800026e:	6003      	str	r3, [r0, #0]
 8000270:	4b0b      	ldr	r3, [pc, #44]	@ (80002a0 <R_Push+0x48>)
 8000272:	f842 4021 	str.w	r4, [r2, r1, lsl #2]
 8000276:	1c48      	adds	r0, r1, #1
 8000278:	fba3 c300 	umull	ip, r3, r3, r0
 800027c:	089b      	lsrs	r3, r3, #2
 800027e:	eb03 0343 	add.w	r3, r3, r3, lsl #1
 8000282:	eba0 0043 	sub.w	r0, r0, r3, lsl #1
 8000286:	f882 00cc 	strb.w	r0, [r2, #204]	@ 0xcc
 800028a:	f85d 4b04 	ldr.w	r4, [sp], #4
 800028e:	2001      	movs	r0, #1
 8000290:	4770      	bx	lr
 8000292:	2000      	movs	r0, #0
 8000294:	4770      	bx	lr
 8000296:	bf00      	nop
 8000298:	2000002c 	.word	0x2000002c
 800029c:	20000000 	.word	0x20000000
 80002a0:	aaaaaaab 	.word	0xaaaaaaab

080002a4 <R_Pop>:
 80002a4:	b410      	push	{r4}
 80002a6:	4c0f      	ldr	r4, [pc, #60]	@ (80002e4 <R_Pop+0x40>)
 80002a8:	4b0f      	ldr	r3, [pc, #60]	@ (80002e8 <R_Pop+0x44>)
 80002aa:	7822      	ldrb	r2, [r4, #0]
 80002ac:	490f      	ldr	r1, [pc, #60]	@ (80002ec <R_Pop+0x48>)
 80002ae:	3201      	adds	r2, #1
 80002b0:	fba3 c302 	umull	ip, r3, r3, r2
 80002b4:	089b      	lsrs	r3, r3, #2
 80002b6:	eb03 0343 	add.w	r3, r3, r3, lsl #1
 80002ba:	eba2 0343 	sub.w	r3, r2, r3, lsl #1
 80002be:	f891 20cc 	ldrb.w	r2, [r1, #204]	@ 0xcc
 80002c2:	4293      	cmp	r3, r2
 80002c4:	d00a      	beq.n	80002dc <R_Pop+0x38>
 80002c6:	6802      	ldr	r2, [r0, #0]
 80002c8:	7023      	strb	r3, [r4, #0]
 80002ca:	f851 4023 	ldr.w	r4, [r1, r3, lsl #2]
 80002ce:	6004      	str	r4, [r0, #0]
 80002d0:	2001      	movs	r0, #1
 80002d2:	f841 2023 	str.w	r2, [r1, r3, lsl #2]
 80002d6:	f85d 4b04 	ldr.w	r4, [sp], #4
 80002da:	4770      	bx	lr
 80002dc:	2000      	movs	r0, #0
 80002de:	f85d 4b04 	ldr.w	r4, [sp], #4
 80002e2:	4770      	bx	lr
 80002e4:	20000000 	.word	0x20000000
 80002e8:	aaaaaaab 	.word	0xaaaaaaab
 80002ec:	2000002c 	.word	0x2000002c

080002f0 <Set_SCL_RisingNFalling>:
 80002f0:	b510      	push	{r4, lr}
 80002f2:	2800      	cmp	r0, #0
 80002f4:	b086      	sub	sp, #24
 80002f6:	bf0c      	ite	eq
 80002f8:	f44f 1104 	moveq.w	r1, #2162688	@ 0x210000
 80002fc:	f44f 1188 	movne.w	r1, #1114112	@ 0x110000
 8000300:	2300      	movs	r3, #0
 8000302:	2202      	movs	r2, #2
 8000304:	9102      	str	r1, [sp, #8]
 8000306:	f44f 7400 	mov.w	r4, #512	@ 0x200
 800030a:	a901      	add	r1, sp, #4
 800030c:	f04f 4090 	mov.w	r0, #1207959552	@ 0x48000000
 8000310:	e9cd 3304 	strd	r3, r3, [sp, #16]
 8000314:	9401      	str	r4, [sp, #4]
 8000316:	9203      	str	r2, [sp, #12]
 8000318:	f000 fcb6 	bl	8000c88 <HAL_GPIO_Init>
 800031c:	b006      	add	sp, #24
 800031e:	bd10      	pop	{r4, pc}

08000320 <Set_SDA_RisingNFalling>:
 8000320:	b510      	push	{r4, lr}
 8000322:	2800      	cmp	r0, #0
 8000324:	b086      	sub	sp, #24
 8000326:	bf0c      	ite	eq
 8000328:	f44f 1104 	moveq.w	r1, #2162688	@ 0x210000
 800032c:	f44f 1188 	movne.w	r1, #1114112	@ 0x110000
 8000330:	2300      	movs	r3, #0
 8000332:	2202      	movs	r2, #2
 8000334:	9102      	str	r1, [sp, #8]
 8000336:	f44f 7480 	mov.w	r4, #256	@ 0x100
 800033a:	a901      	add	r1, sp, #4
 800033c:	f04f 4090 	mov.w	r0, #1207959552	@ 0x48000000
 8000340:	e9cd 3304 	strd	r3, r3, [sp, #16]
 8000344:	9401      	str	r4, [sp, #4]
 8000346:	9203      	str	r2, [sp, #12]
 8000348:	f000 fc9e 	bl	8000c88 <HAL_GPIO_Init>
 800034c:	b006      	add	sp, #24
 800034e:	bd10      	pop	{r4, pc}

08000350 <Set_SCL_INT>:
 8000350:	4b01      	ldr	r3, [pc, #4]	@ (8000358 <Set_SCL_INT+0x8>)
 8000352:	7018      	strb	r0, [r3, #0]
 8000354:	4770      	bx	lr
 8000356:	bf00      	nop
 8000358:	20000120 	.word	0x20000120

0800035c <Set_SDA_INT>:
 800035c:	4b01      	ldr	r3, [pc, #4]	@ (8000364 <Set_SDA_INT+0x8>)
 800035e:	7058      	strb	r0, [r3, #1]
 8000360:	4770      	bx	lr
 8000362:	bf00      	nop
 8000364:	20000120 	.word	0x20000120

08000368 <SystemClock_Config>:
 8000368:	b510      	push	{r4, lr}
 800036a:	2220      	movs	r2, #32
 800036c:	b0a6      	sub	sp, #152	@ 0x98
 800036e:	2100      	movs	r1, #0
 8000370:	eb0d 0002 	add.w	r0, sp, r2
 8000374:	f002 fec1 	bl	80030fa <memset>
 8000378:	2100      	movs	r1, #0
 800037a:	2258      	movs	r2, #88	@ 0x58
 800037c:	a810      	add	r0, sp, #64	@ 0x40
 800037e:	e9cd 1101 	strd	r1, r1, [sp, #4]
 8000382:	e9cd 1103 	strd	r1, r1, [sp, #12]
 8000386:	9105      	str	r1, [sp, #20]
 8000388:	f002 feb7 	bl	80030fa <memset>
 800038c:	2001      	movs	r0, #1
 800038e:	f44f 21a0 	mov.w	r1, #327680	@ 0x50000
 8000392:	e9cd 0106 	strd	r0, r1, [sp, #24]
 8000396:	2002      	movs	r0, #2
 8000398:	f44f 3180 	mov.w	r1, #65536	@ 0x10000
 800039c:	e9cd 010c 	strd	r0, r1, [sp, #48]	@ 0x30
 80003a0:	2201      	movs	r2, #1
 80003a2:	f44f 13e0 	mov.w	r3, #1835008	@ 0x1c0000
 80003a6:	a806      	add	r0, sp, #24
 80003a8:	9209      	str	r2, [sp, #36]	@ 0x24
 80003aa:	930e      	str	r3, [sp, #56]	@ 0x38
 80003ac:	f000 fed4 	bl	8001158 <HAL_RCC_OscConfig>
 80003b0:	b108      	cbz	r0, 80003b6 <SystemClock_Config+0x4e>
 80003b2:	b672      	cpsid	i
 80003b4:	e7fe      	b.n	80003b4 <SystemClock_Config+0x4c>
 80003b6:	2402      	movs	r4, #2
 80003b8:	220f      	movs	r2, #15
 80003ba:	4603      	mov	r3, r0
 80003bc:	9201      	str	r2, [sp, #4]
 80003be:	a801      	add	r0, sp, #4
 80003c0:	f44f 6280 	mov.w	r2, #1024	@ 0x400
 80003c4:	4621      	mov	r1, r4
 80003c6:	e9cd 4302 	strd	r4, r3, [sp, #8]
 80003ca:	9305      	str	r3, [sp, #20]
 80003cc:	9204      	str	r2, [sp, #16]
 80003ce:	f001 f98b 	bl	80016e8 <HAL_RCC_ClockConfig>
 80003d2:	4603      	mov	r3, r0
 80003d4:	b108      	cbz	r0, 80003da <SystemClock_Config+0x72>
 80003d6:	b672      	cpsid	i
 80003d8:	e7fe      	b.n	80003d8 <SystemClock_Config+0x70>
 80003da:	a810      	add	r0, sp, #64	@ 0x40
 80003dc:	9410      	str	r4, [sp, #64]	@ 0x40
 80003de:	9313      	str	r3, [sp, #76]	@ 0x4c
 80003e0:	f001 fb4e 	bl	8001a80 <HAL_RCCEx_PeriphCLKConfig>
 80003e4:	b108      	cbz	r0, 80003ea <SystemClock_Config+0x82>
 80003e6:	b672      	cpsid	i
 80003e8:	e7fe      	b.n	80003e8 <SystemClock_Config+0x80>
 80003ea:	b026      	add	sp, #152	@ 0x98
 80003ec:	bd10      	pop	{r4, pc}
 80003ee:	bf00      	nop

080003f0 <Bus_State_Handler>:
 80003f0:	b570      	push	{r4, r5, r6, lr}
 80003f2:	4d83      	ldr	r5, [pc, #524]	@ (8000600 <Bus_State_Handler+0x210>)
 80003f4:	f895 304b 	ldrb.w	r3, [r5, #75]	@ 0x4b
 80003f8:	b086      	sub	sp, #24
 80003fa:	4604      	mov	r4, r0
 80003fc:	2b03      	cmp	r3, #3
 80003fe:	d809      	bhi.n	8000414 <Bus_State_Handler+0x24>
 8000400:	e8df f003 	tbb	[pc, r3]
 8000404:	0d33026a 	.word	0x0d33026a
 8000408:	2800      	cmp	r0, #0
 800040a:	f000 8087 	beq.w	800051c <Bus_State_Handler+0x12c>
 800040e:	2801      	cmp	r0, #1
 8000410:	f000 80c5 	beq.w	800059e <Bus_State_Handler+0x1ae>
 8000414:	2304      	movs	r3, #4
 8000416:	f885 304b 	strb.w	r3, [r5, #75]	@ 0x4b
 800041a:	b006      	add	sp, #24
 800041c:	bd70      	pop	{r4, r5, r6, pc}
 800041e:	2800      	cmp	r0, #0
 8000420:	d1f8      	bne.n	8000414 <Bus_State_Handler+0x24>
 8000422:	4c78      	ldr	r4, [pc, #480]	@ (8000604 <Bus_State_Handler+0x214>)
 8000424:	7823      	ldrb	r3, [r4, #0]
 8000426:	2b02      	cmp	r3, #2
 8000428:	f200 80cf 	bhi.w	80005ca <Bus_State_Handler+0x1da>
 800042c:	7823      	ldrb	r3, [r4, #0]
 800042e:	3b01      	subs	r3, #1
 8000430:	b2db      	uxtb	r3, r3
 8000432:	7023      	strb	r3, [r4, #0]
 8000434:	7823      	ldrb	r3, [r4, #0]
 8000436:	2b02      	cmp	r3, #2
 8000438:	f000 80c1 	beq.w	80005be <Bus_State_Handler+0x1ce>
 800043c:	7823      	ldrb	r3, [r4, #0]
 800043e:	2b01      	cmp	r3, #1
 8000440:	f000 80d3 	beq.w	80005ea <Bus_State_Handler+0x1fa>
 8000444:	7823      	ldrb	r3, [r4, #0]
 8000446:	2b00      	cmp	r3, #0
 8000448:	d1e7      	bne.n	800041a <Bus_State_Handler+0x2a>
 800044a:	f44f 7180 	mov.w	r1, #256	@ 0x100
 800044e:	f04f 4090 	mov.w	r0, #1207959552	@ 0x48000000
 8000452:	f000 fdd3 	bl	8000ffc <HAL_GPIO_ReadPin>
 8000456:	2800      	cmp	r0, #0
 8000458:	d1dc      	bne.n	8000414 <Bus_State_Handler+0x24>
 800045a:	2309      	movs	r3, #9
 800045c:	2202      	movs	r2, #2
 800045e:	f885 004c 	strb.w	r0, [r5, #76]	@ 0x4c
 8000462:	f885 204b 	strb.w	r2, [r5, #75]	@ 0x4b
 8000466:	7023      	strb	r3, [r4, #0]
 8000468:	e7d7      	b.n	800041a <Bus_State_Handler+0x2a>
 800046a:	2800      	cmp	r0, #0
 800046c:	d1d2      	bne.n	8000414 <Bus_State_Handler+0x24>
 800046e:	4c65      	ldr	r4, [pc, #404]	@ (8000604 <Bus_State_Handler+0x214>)
 8000470:	7823      	ldrb	r3, [r4, #0]
 8000472:	2b01      	cmp	r3, #1
 8000474:	d90e      	bls.n	8000494 <Bus_State_Handler+0xa4>
 8000476:	f44f 7180 	mov.w	r1, #256	@ 0x100
 800047a:	f04f 4090 	mov.w	r0, #1207959552	@ 0x48000000
 800047e:	f000 fdbd 	bl	8000ffc <HAL_GPIO_ReadPin>
 8000482:	7822      	ldrb	r2, [r4, #0]
 8000484:	f895 304c 	ldrb.w	r3, [r5, #76]	@ 0x4c
 8000488:	3a02      	subs	r2, #2
 800048a:	4090      	lsls	r0, r2
 800048c:	4303      	orrs	r3, r0
 800048e:	b2db      	uxtb	r3, r3
 8000490:	f885 304c 	strb.w	r3, [r5, #76]	@ 0x4c
 8000494:	7823      	ldrb	r3, [r4, #0]
 8000496:	3b01      	subs	r3, #1
 8000498:	b2db      	uxtb	r3, r3
 800049a:	7023      	strb	r3, [r4, #0]
 800049c:	7823      	ldrb	r3, [r4, #0]
 800049e:	2b01      	cmp	r3, #1
 80004a0:	d10b      	bne.n	80004ba <Bus_State_Handler+0xca>
 80004a2:	686a      	ldr	r2, [r5, #4]
 80004a4:	7813      	ldrb	r3, [r2, #0]
 80004a6:	3301      	adds	r3, #1
 80004a8:	7013      	strb	r3, [r2, #0]
 80004aa:	7862      	ldrb	r2, [r4, #1]
 80004ac:	6869      	ldr	r1, [r5, #4]
 80004ae:	1c53      	adds	r3, r2, #1
 80004b0:	b2db      	uxtb	r3, r3
 80004b2:	7063      	strb	r3, [r4, #1]
 80004b4:	f895 304c 	ldrb.w	r3, [r5, #76]	@ 0x4c
 80004b8:	548b      	strb	r3, [r1, r2]
 80004ba:	7823      	ldrb	r3, [r4, #0]
 80004bc:	2b00      	cmp	r3, #0
 80004be:	d1ac      	bne.n	800041a <Bus_State_Handler+0x2a>
 80004c0:	f44f 7180 	mov.w	r1, #256	@ 0x100
 80004c4:	f04f 4090 	mov.w	r0, #1207959552	@ 0x48000000
 80004c8:	f000 fd98 	bl	8000ffc <HAL_GPIO_ReadPin>
 80004cc:	2800      	cmp	r0, #0
 80004ce:	d0c4      	beq.n	800045a <Bus_State_Handler+0x6a>
 80004d0:	2301      	movs	r3, #1
 80004d2:	f885 304b 	strb.w	r3, [r5, #75]	@ 0x4b
 80004d6:	e7a0      	b.n	800041a <Bus_State_Handler+0x2a>
 80004d8:	2801      	cmp	r0, #1
 80004da:	d041      	beq.n	8000560 <Bus_State_Handler+0x170>
 80004dc:	2800      	cmp	r0, #0
 80004de:	d199      	bne.n	8000414 <Bus_State_Handler+0x24>
 80004e0:	f44f 7100 	mov.w	r1, #512	@ 0x200
 80004e4:	f04f 4090 	mov.w	r0, #1207959552	@ 0x48000000
 80004e8:	f000 fd88 	bl	8000ffc <HAL_GPIO_ReadPin>
 80004ec:	2800      	cmp	r0, #0
 80004ee:	d191      	bne.n	8000414 <Bus_State_Handler+0x24>
 80004f0:	f44f 7000 	mov.w	r0, #512	@ 0x200
 80004f4:	f44f 1188 	mov.w	r1, #1114112	@ 0x110000
 80004f8:	e9cd 0100 	strd	r0, r1, [sp]
 80004fc:	2302      	movs	r3, #2
 80004fe:	4669      	mov	r1, sp
 8000500:	f04f 4090 	mov.w	r0, #1207959552	@ 0x48000000
 8000504:	9302      	str	r3, [sp, #8]
 8000506:	e9cd 4403 	strd	r4, r4, [sp, #12]
 800050a:	f000 fbbd 	bl	8000c88 <HAL_GPIO_Init>
 800050e:	2201      	movs	r2, #1
 8000510:	2303      	movs	r3, #3
 8000512:	706c      	strb	r4, [r5, #1]
 8000514:	702a      	strb	r2, [r5, #0]
 8000516:	f885 304b 	strb.w	r3, [r5, #75]	@ 0x4b
 800051a:	e77e      	b.n	800041a <Bus_State_Handler+0x2a>
 800051c:	f44f 7180 	mov.w	r1, #256	@ 0x100
 8000520:	f04f 4090 	mov.w	r0, #1207959552	@ 0x48000000
 8000524:	f000 fd6a 	bl	8000ffc <HAL_GPIO_ReadPin>
 8000528:	2800      	cmp	r0, #0
 800052a:	f47f af73 	bne.w	8000414 <Bus_State_Handler+0x24>
 800052e:	f44f 7280 	mov.w	r2, #256	@ 0x100
 8000532:	f44f 1388 	mov.w	r3, #1114112	@ 0x110000
 8000536:	e9cd 2300 	strd	r2, r3, [sp]
 800053a:	4669      	mov	r1, sp
 800053c:	2302      	movs	r3, #2
 800053e:	f04f 4090 	mov.w	r0, #1207959552	@ 0x48000000
 8000542:	9302      	str	r3, [sp, #8]
 8000544:	e9cd 4403 	strd	r4, r4, [sp, #12]
 8000548:	f000 fb9e 	bl	8000c88 <HAL_GPIO_Init>
 800054c:	2301      	movs	r3, #1
 800054e:	482e      	ldr	r0, [pc, #184]	@ (8000608 <Bus_State_Handler+0x218>)
 8000550:	706b      	strb	r3, [r5, #1]
 8000552:	702c      	strb	r4, [r5, #0]
 8000554:	f7ff fe80 	bl	8000258 <R_Push>
 8000558:	2304      	movs	r3, #4
 800055a:	f885 304b 	strb.w	r3, [r5, #75]	@ 0x4b
 800055e:	e75c      	b.n	800041a <Bus_State_Handler+0x2a>
 8000560:	f44f 7100 	mov.w	r1, #512	@ 0x200
 8000564:	f04f 4090 	mov.w	r0, #1207959552	@ 0x48000000
 8000568:	f000 fd48 	bl	8000ffc <HAL_GPIO_ReadPin>
 800056c:	2800      	cmp	r0, #0
 800056e:	f43f af51 	beq.w	8000414 <Bus_State_Handler+0x24>
 8000572:	f44f 7200 	mov.w	r2, #512	@ 0x200
 8000576:	f44f 1388 	mov.w	r3, #1114112	@ 0x110000
 800057a:	e9cd 2300 	strd	r2, r3, [sp]
 800057e:	2600      	movs	r6, #0
 8000580:	2302      	movs	r3, #2
 8000582:	4669      	mov	r1, sp
 8000584:	f04f 4090 	mov.w	r0, #1207959552	@ 0x48000000
 8000588:	9302      	str	r3, [sp, #8]
 800058a:	e9cd 6603 	strd	r6, r6, [sp, #12]
 800058e:	f000 fb7b 	bl	8000c88 <HAL_GPIO_Init>
 8000592:	2303      	movs	r3, #3
 8000594:	706e      	strb	r6, [r5, #1]
 8000596:	702c      	strb	r4, [r5, #0]
 8000598:	f885 304b 	strb.w	r3, [r5, #75]	@ 0x4b
 800059c:	e73d      	b.n	800041a <Bus_State_Handler+0x2a>
 800059e:	f44f 7100 	mov.w	r1, #512	@ 0x200
 80005a2:	f04f 4090 	mov.w	r0, #1207959552	@ 0x48000000
 80005a6:	f000 fd29 	bl	8000ffc <HAL_GPIO_ReadPin>
 80005aa:	2800      	cmp	r0, #0
 80005ac:	f43f af32 	beq.w	8000414 <Bus_State_Handler+0x24>
 80005b0:	4815      	ldr	r0, [pc, #84]	@ (8000608 <Bus_State_Handler+0x218>)
 80005b2:	f7ff fe51 	bl	8000258 <R_Push>
 80005b6:	2304      	movs	r3, #4
 80005b8:	f885 304b 	strb.w	r3, [r5, #75]	@ 0x4b
 80005bc:	e72d      	b.n	800041a <Bus_State_Handler+0x2a>
 80005be:	f895 304c 	ldrb.w	r3, [r5, #76]	@ 0x4c
 80005c2:	2b69      	cmp	r3, #105	@ 0x69
 80005c4:	f47f af26 	bne.w	8000414 <Bus_State_Handler+0x24>
 80005c8:	e727      	b.n	800041a <Bus_State_Handler+0x2a>
 80005ca:	f44f 7180 	mov.w	r1, #256	@ 0x100
 80005ce:	f04f 4090 	mov.w	r0, #1207959552	@ 0x48000000
 80005d2:	f000 fd13 	bl	8000ffc <HAL_GPIO_ReadPin>
 80005d6:	7822      	ldrb	r2, [r4, #0]
 80005d8:	f895 304c 	ldrb.w	r3, [r5, #76]	@ 0x4c
 80005dc:	3a03      	subs	r2, #3
 80005de:	4090      	lsls	r0, r2
 80005e0:	4303      	orrs	r3, r0
 80005e2:	b2db      	uxtb	r3, r3
 80005e4:	f885 304c 	strb.w	r3, [r5, #76]	@ 0x4c
 80005e8:	e720      	b.n	800042c <Bus_State_Handler+0x3c>
 80005ea:	f44f 7180 	mov.w	r1, #256	@ 0x100
 80005ee:	f04f 4090 	mov.w	r0, #1207959552	@ 0x48000000
 80005f2:	f000 fd03 	bl	8000ffc <HAL_GPIO_ReadPin>
 80005f6:	2800      	cmp	r0, #0
 80005f8:	f43f af0c 	beq.w	8000414 <Bus_State_Handler+0x24>
 80005fc:	e70d      	b.n	800041a <Bus_State_Handler+0x2a>
 80005fe:	bf00      	nop
 8000600:	20000120 	.word	0x20000120
 8000604:	20000001 	.word	0x20000001
 8000608:	20000124 	.word	0x20000124

0800060c <HAL_GPIO_EXTI_Callback>:
 800060c:	f5b0 7f80 	cmp.w	r0, #256	@ 0x100
 8000610:	b510      	push	{r4, lr}
 8000612:	4c0c      	ldr	r4, [pc, #48]	@ (8000644 <HAL_GPIO_EXTI_Callback+0x38>)
 8000614:	d008      	beq.n	8000628 <HAL_GPIO_EXTI_Callback+0x1c>
 8000616:	f5b0 7f00 	cmp.w	r0, #512	@ 0x200
 800061a:	d101      	bne.n	8000620 <HAL_GPIO_EXTI_Callback+0x14>
 800061c:	7823      	ldrb	r3, [r4, #0]
 800061e:	b96b      	cbnz	r3, 800063c <HAL_GPIO_EXTI_Callback+0x30>
 8000620:	2300      	movs	r3, #0
 8000622:	f884 304d 	strb.w	r3, [r4, #77]	@ 0x4d
 8000626:	bd10      	pop	{r4, pc}
 8000628:	7863      	ldrb	r3, [r4, #1]
 800062a:	2b00      	cmp	r3, #0
 800062c:	d0f8      	beq.n	8000620 <HAL_GPIO_EXTI_Callback+0x14>
 800062e:	2001      	movs	r0, #1
 8000630:	f7ff fede 	bl	80003f0 <Bus_State_Handler>
 8000634:	2300      	movs	r3, #0
 8000636:	f884 304d 	strb.w	r3, [r4, #77]	@ 0x4d
 800063a:	bd10      	pop	{r4, pc}
 800063c:	2000      	movs	r0, #0
 800063e:	f7ff fed7 	bl	80003f0 <Bus_State_Handler>
 8000642:	e7ed      	b.n	8000620 <HAL_GPIO_EXTI_Callback+0x14>
 8000644:	20000120 	.word	0x20000120

08000648 <Timer_Reset>:
 8000648:	b530      	push	{r4, r5, lr}
 800064a:	4c16      	ldr	r4, [pc, #88]	@ (80006a4 <Timer_Reset+0x5c>)
 800064c:	f894 304d 	ldrb.w	r3, [r4, #77]	@ 0x4d
 8000650:	3301      	adds	r3, #1
 8000652:	b2db      	uxtb	r3, r3
 8000654:	f884 304d 	strb.w	r3, [r4, #77]	@ 0x4d
 8000658:	f894 304d 	ldrb.w	r3, [r4, #77]	@ 0x4d
 800065c:	2b05      	cmp	r3, #5
 800065e:	b087      	sub	sp, #28
 8000660:	d902      	bls.n	8000668 <Timer_Reset+0x20>
 8000662:	f894 304b 	ldrb.w	r3, [r4, #75]	@ 0x4b
 8000666:	b90b      	cbnz	r3, 800066c <Timer_Reset+0x24>
 8000668:	b007      	add	sp, #28
 800066a:	bd30      	pop	{r4, r5, pc}
 800066c:	4b0e      	ldr	r3, [pc, #56]	@ (80006a8 <Timer_Reset+0x60>)
 800066e:	2209      	movs	r2, #9
 8000670:	701a      	strb	r2, [r3, #0]
 8000672:	f44f 7280 	mov.w	r2, #256	@ 0x100
 8000676:	f44f 1304 	mov.w	r3, #2162688	@ 0x210000
 800067a:	2500      	movs	r5, #0
 800067c:	e9cd 2300 	strd	r2, r3, [sp]
 8000680:	4669      	mov	r1, sp
 8000682:	2302      	movs	r3, #2
 8000684:	f04f 4090 	mov.w	r0, #1207959552	@ 0x48000000
 8000688:	9302      	str	r3, [sp, #8]
 800068a:	e9cd 5503 	strd	r5, r5, [sp, #12]
 800068e:	f884 504c 	strb.w	r5, [r4, #76]	@ 0x4c
 8000692:	f000 faf9 	bl	8000c88 <HAL_GPIO_Init>
 8000696:	2301      	movs	r3, #1
 8000698:	7063      	strb	r3, [r4, #1]
 800069a:	7025      	strb	r5, [r4, #0]
 800069c:	f884 504b 	strb.w	r5, [r4, #75]	@ 0x4b
 80006a0:	b007      	add	sp, #28
 80006a2:	bd30      	pop	{r4, r5, pc}
 80006a4:	20000120 	.word	0x20000120
 80006a8:	20000001 	.word	0x20000001

080006ac <Error_Handler>:
 80006ac:	b672      	cpsid	i
 80006ae:	e7fe      	b.n	80006ae <Error_Handler+0x2>

080006b0 <HAL_MspInit>:
 80006b0:	4b0b      	ldr	r3, [pc, #44]	@ (80006e0 <HAL_MspInit+0x30>)
 80006b2:	699a      	ldr	r2, [r3, #24]
 80006b4:	f042 0201 	orr.w	r2, r2, #1
 80006b8:	619a      	str	r2, [r3, #24]
 80006ba:	699a      	ldr	r2, [r3, #24]
 80006bc:	b082      	sub	sp, #8
 80006be:	f002 0201 	and.w	r2, r2, #1
 80006c2:	9200      	str	r2, [sp, #0]
 80006c4:	9a00      	ldr	r2, [sp, #0]
 80006c6:	69da      	ldr	r2, [r3, #28]
 80006c8:	f042 5280 	orr.w	r2, r2, #268435456	@ 0x10000000
 80006cc:	61da      	str	r2, [r3, #28]
 80006ce:	69db      	ldr	r3, [r3, #28]
 80006d0:	f003 5380 	and.w	r3, r3, #268435456	@ 0x10000000
 80006d4:	9301      	str	r3, [sp, #4]
 80006d6:	9b01      	ldr	r3, [sp, #4]
 80006d8:	2007      	movs	r0, #7
 80006da:	b002      	add	sp, #8
 80006dc:	f000 b94c 	b.w	8000978 <HAL_NVIC_SetPriorityGrouping>
 80006e0:	40021000 	.word	0x40021000

080006e4 <NMI_Handler>:
 80006e4:	e7fe      	b.n	80006e4 <NMI_Handler>
 80006e6:	bf00      	nop

080006e8 <HardFault_Handler>:
 80006e8:	be00      	bkpt	0x0000
 80006ea:	e7fe      	b.n	80006ea <HardFault_Handler+0x2>

080006ec <MemManage_Handler>:
 80006ec:	e7fe      	b.n	80006ec <MemManage_Handler>
 80006ee:	bf00      	nop

080006f0 <BusFault_Handler>:
 80006f0:	e7fe      	b.n	80006f0 <BusFault_Handler>
 80006f2:	bf00      	nop

080006f4 <UsageFault_Handler>:
 80006f4:	e7fe      	b.n	80006f4 <UsageFault_Handler>
 80006f6:	bf00      	nop

080006f8 <SVC_Handler>:
 80006f8:	4770      	bx	lr
 80006fa:	bf00      	nop

080006fc <DebugMon_Handler>:
 80006fc:	4770      	bx	lr
 80006fe:	bf00      	nop

08000700 <PendSV_Handler>:
 8000700:	4770      	bx	lr
 8000702:	bf00      	nop

08000704 <SysTick_Handler>:
 8000704:	b508      	push	{r3, lr}
 8000706:	f7ff ff9f 	bl	8000648 <Timer_Reset>
 800070a:	e8bd 4008 	ldmia.w	sp!, {r3, lr}
 800070e:	f000 b88d 	b.w	800082c <HAL_IncTick>
 8000712:	bf00      	nop

08000714 <EXTI9_5_IRQHandler>:
 8000714:	b508      	push	{r3, lr}
 8000716:	f44f 7080 	mov.w	r0, #256	@ 0x100
 800071a:	f000 fc9d 	bl	8001058 <HAL_GPIO_EXTI_IRQHandler>
 800071e:	e8bd 4008 	ldmia.w	sp!, {r3, lr}
 8000722:	f44f 7000 	mov.w	r0, #512	@ 0x200
 8000726:	f000 bc97 	b.w	8001058 <HAL_GPIO_EXTI_IRQHandler>
 800072a:	bf00      	nop

0800072c <EXTI15_10_IRQHandler>:
 800072c:	f44f 5000 	mov.w	r0, #8192	@ 0x2000
 8000730:	f000 bc92 	b.w	8001058 <HAL_GPIO_EXTI_IRQHandler>

08000734 <SystemInit>:
 8000734:	4a03      	ldr	r2, [pc, #12]	@ (8000744 <SystemInit+0x10>)
 8000736:	f8d2 3088 	ldr.w	r3, [r2, #136]	@ 0x88
 800073a:	f443 0370 	orr.w	r3, r3, #15728640	@ 0xf00000
 800073e:	f8c2 3088 	str.w	r3, [r2, #136]	@ 0x88
 8000742:	4770      	bx	lr
 8000744:	e000ed00 	.word	0xe000ed00

08000748 <SystemCoreClockUpdate>:
 8000748:	4a0f      	ldr	r2, [pc, #60]	@ (8000788 <SystemCoreClockUpdate+0x40>)
 800074a:	6853      	ldr	r3, [r2, #4]
 800074c:	f003 030c 	and.w	r3, r3, #12
 8000750:	2b08      	cmp	r3, #8
 8000752:	d00a      	beq.n	800076a <SystemCoreClockUpdate+0x22>
 8000754:	4b0d      	ldr	r3, [pc, #52]	@ (800078c <SystemCoreClockUpdate+0x44>)
 8000756:	4a0c      	ldr	r2, [pc, #48]	@ (8000788 <SystemCoreClockUpdate+0x40>)
 8000758:	480d      	ldr	r0, [pc, #52]	@ (8000790 <SystemCoreClockUpdate+0x48>)
 800075a:	6852      	ldr	r2, [r2, #4]
 800075c:	490d      	ldr	r1, [pc, #52]	@ (8000794 <SystemCoreClockUpdate+0x4c>)
 800075e:	f3c2 1203 	ubfx	r2, r2, #4, #4
 8000762:	5c82      	ldrb	r2, [r0, r2]
 8000764:	40d3      	lsrs	r3, r2
 8000766:	600b      	str	r3, [r1, #0]
 8000768:	4770      	bx	lr
 800076a:	6853      	ldr	r3, [r2, #4]
 800076c:	6851      	ldr	r1, [r2, #4]
 800076e:	6ad1      	ldr	r1, [r2, #44]	@ 0x2c
 8000770:	f3c3 4283 	ubfx	r2, r3, #18, #4
 8000774:	f001 010f 	and.w	r1, r1, #15
 8000778:	3202      	adds	r2, #2
 800077a:	4b04      	ldr	r3, [pc, #16]	@ (800078c <SystemCoreClockUpdate+0x44>)
 800077c:	3101      	adds	r1, #1
 800077e:	fbb3 f3f1 	udiv	r3, r3, r1
 8000782:	fb02 f303 	mul.w	r3, r2, r3
 8000786:	e7e6      	b.n	8000756 <SystemCoreClockUpdate+0xe>
 8000788:	40021000 	.word	0x40021000
 800078c:	007a1200 	.word	0x007a1200
 8000790:	0800316c 	.word	0x0800316c
 8000794:	20000004 	.word	0x20000004
 8000798:	4770      	bx	lr
 800079a:	bf00      	nop

0800079c <HAL_MspDeInit>:
 800079c:	4770      	bx	lr
 800079e:	bf00      	nop

080007a0 <HAL_DeInit>:
 80007a0:	b510      	push	{r4, lr}
 80007a2:	4b07      	ldr	r3, [pc, #28]	@ (80007c0 <HAL_DeInit+0x20>)
 80007a4:	2400      	movs	r4, #0
 80007a6:	f04f 32ff 	mov.w	r2, #4294967295
 80007aa:	611a      	str	r2, [r3, #16]
 80007ac:	611c      	str	r4, [r3, #16]
 80007ae:	60da      	str	r2, [r3, #12]
 80007b0:	60dc      	str	r4, [r3, #12]
 80007b2:	629a      	str	r2, [r3, #40]	@ 0x28
 80007b4:	629c      	str	r4, [r3, #40]	@ 0x28
 80007b6:	f7ff fff1 	bl	800079c <HAL_MspDeInit>
 80007ba:	4620      	mov	r0, r4
 80007bc:	bd10      	pop	{r4, pc}
 80007be:	bf00      	nop
 80007c0:	40021000 	.word	0x40021000

080007c4 <HAL_InitTick>:
 80007c4:	b570      	push	{r4, r5, r6, lr}
 80007c6:	4b0e      	ldr	r3, [pc, #56]	@ (8000800 <HAL_InitTick+0x3c>)
 80007c8:	4e0e      	ldr	r6, [pc, #56]	@ (8000804 <HAL_InitTick+0x40>)
 80007ca:	681b      	ldr	r3, [r3, #0]
 80007cc:	7832      	ldrb	r2, [r6, #0]
 80007ce:	4605      	mov	r5, r0
 80007d0:	f44f 707a 	mov.w	r0, #1000	@ 0x3e8
 80007d4:	fbb0 f0f2 	udiv	r0, r0, r2
 80007d8:	fbb3 f0f0 	udiv	r0, r3, r0
 80007dc:	f000 f94c 	bl	8000a78 <HAL_SYSTICK_Config>
 80007e0:	b908      	cbnz	r0, 80007e6 <HAL_InitTick+0x22>
 80007e2:	2d0f      	cmp	r5, #15
 80007e4:	d901      	bls.n	80007ea <HAL_InitTick+0x26>
 80007e6:	2001      	movs	r0, #1
 80007e8:	bd70      	pop	{r4, r5, r6, pc}
 80007ea:	4604      	mov	r4, r0
 80007ec:	4602      	mov	r2, r0
 80007ee:	4629      	mov	r1, r5
 80007f0:	f04f 30ff 	mov.w	r0, #4294967295
 80007f4:	f000 f8d2 	bl	800099c <HAL_NVIC_SetPriority>
 80007f8:	6075      	str	r5, [r6, #4]
 80007fa:	4620      	mov	r0, r4
 80007fc:	bd70      	pop	{r4, r5, r6, pc}
 80007fe:	bf00      	nop
 8000800:	20000004 	.word	0x20000004
 8000804:	20000008 	.word	0x20000008

08000808 <HAL_Init>:
 8000808:	4a07      	ldr	r2, [pc, #28]	@ (8000828 <HAL_Init+0x20>)
 800080a:	b508      	push	{r3, lr}
 800080c:	6813      	ldr	r3, [r2, #0]
 800080e:	f043 0310 	orr.w	r3, r3, #16
 8000812:	6013      	str	r3, [r2, #0]
 8000814:	2003      	movs	r0, #3
 8000816:	f000 f8af 	bl	8000978 <HAL_NVIC_SetPriorityGrouping>
 800081a:	2000      	movs	r0, #0
 800081c:	f7ff ffd2 	bl	80007c4 <HAL_InitTick>
 8000820:	f7ff ff46 	bl	80006b0 <HAL_MspInit>
 8000824:	2000      	movs	r0, #0
 8000826:	bd08      	pop	{r3, pc}
 8000828:	40022000 	.word	0x40022000

0800082c <HAL_IncTick>:
 800082c:	4a03      	ldr	r2, [pc, #12]	@ (800083c <HAL_IncTick+0x10>)
 800082e:	4b04      	ldr	r3, [pc, #16]	@ (8000840 <HAL_IncTick+0x14>)
 8000830:	6811      	ldr	r1, [r2, #0]
 8000832:	781b      	ldrb	r3, [r3, #0]
 8000834:	440b      	add	r3, r1
 8000836:	6013      	str	r3, [r2, #0]
 8000838:	4770      	bx	lr
 800083a:	bf00      	nop
 800083c:	20000170 	.word	0x20000170
 8000840:	20000008 	.word	0x20000008

08000844 <HAL_GetTick>:
 8000844:	4b01      	ldr	r3, [pc, #4]	@ (800084c <HAL_GetTick+0x8>)
 8000846:	6818      	ldr	r0, [r3, #0]
 8000848:	4770      	bx	lr
 800084a:	bf00      	nop
 800084c:	20000170 	.word	0x20000170

08000850 <HAL_GetTickPrio>:
 8000850:	4b01      	ldr	r3, [pc, #4]	@ (8000858 <HAL_GetTickPrio+0x8>)
 8000852:	6858      	ldr	r0, [r3, #4]
 8000854:	4770      	bx	lr
 8000856:	bf00      	nop
 8000858:	20000008 	.word	0x20000008

0800085c <HAL_SetTickFreq>:
 800085c:	b538      	push	{r3, r4, r5, lr}
 800085e:	4c07      	ldr	r4, [pc, #28]	@ (800087c <HAL_SetTickFreq+0x20>)
 8000860:	7825      	ldrb	r5, [r4, #0]
 8000862:	4285      	cmp	r5, r0
 8000864:	d101      	bne.n	800086a <HAL_SetTickFreq+0xe>
 8000866:	2000      	movs	r0, #0
 8000868:	bd38      	pop	{r3, r4, r5, pc}
 800086a:	4603      	mov	r3, r0
 800086c:	6860      	ldr	r0, [r4, #4]
 800086e:	7023      	strb	r3, [r4, #0]
 8000870:	f7ff ffa8 	bl	80007c4 <HAL_InitTick>
 8000874:	2800      	cmp	r0, #0
 8000876:	d0f6      	beq.n	8000866 <HAL_SetTickFreq+0xa>
 8000878:	7025      	strb	r5, [r4, #0]
 800087a:	bd38      	pop	{r3, r4, r5, pc}
 800087c:	20000008 	.word	0x20000008

08000880 <HAL_GetTickFreq>:
 8000880:	4b01      	ldr	r3, [pc, #4]	@ (8000888 <HAL_GetTickFreq+0x8>)
 8000882:	7818      	ldrb	r0, [r3, #0]
 8000884:	4770      	bx	lr
 8000886:	bf00      	nop
 8000888:	20000008 	.word	0x20000008

0800088c <HAL_Delay>:
 800088c:	b538      	push	{r3, r4, r5, lr}
 800088e:	4604      	mov	r4, r0
 8000890:	f7ff ffd8 	bl	8000844 <HAL_GetTick>
 8000894:	1c63      	adds	r3, r4, #1
 8000896:	4605      	mov	r5, r0
 8000898:	d002      	beq.n	80008a0 <HAL_Delay+0x14>
 800089a:	4b04      	ldr	r3, [pc, #16]	@ (80008ac <HAL_Delay+0x20>)
 800089c:	781b      	ldrb	r3, [r3, #0]
 800089e:	441c      	add	r4, r3
 80008a0:	f7ff ffd0 	bl	8000844 <HAL_GetTick>
 80008a4:	1b40      	subs	r0, r0, r5
 80008a6:	42a0      	cmp	r0, r4
 80008a8:	d3fa      	bcc.n	80008a0 <HAL_Delay+0x14>
 80008aa:	bd38      	pop	{r3, r4, r5, pc}
 80008ac:	20000008 	.word	0x20000008

080008b0 <HAL_SuspendTick>:
 80008b0:	f04f 22e0 	mov.w	r2, #3758153728	@ 0xe000e000
 80008b4:	6913      	ldr	r3, [r2, #16]
 80008b6:	f023 0302 	bic.w	r3, r3, #2
 80008ba:	6113      	str	r3, [r2, #16]
 80008bc:	4770      	bx	lr
 80008be:	bf00      	nop

080008c0 <HAL_ResumeTick>:
 80008c0:	f04f 22e0 	mov.w	r2, #3758153728	@ 0xe000e000
 80008c4:	6913      	ldr	r3, [r2, #16]
 80008c6:	f043 0302 	orr.w	r3, r3, #2
 80008ca:	6113      	str	r3, [r2, #16]
 80008cc:	4770      	bx	lr
 80008ce:	bf00      	nop

080008d0 <HAL_GetHalVersion>:
 80008d0:	4800      	ldr	r0, [pc, #0]	@ (80008d4 <HAL_GetHalVersion+0x4>)
 80008d2:	4770      	bx	lr
 80008d4:	01050800 	.word	0x01050800

080008d8 <HAL_GetREVID>:
 80008d8:	4b01      	ldr	r3, [pc, #4]	@ (80008e0 <HAL_GetREVID+0x8>)
 80008da:	6818      	ldr	r0, [r3, #0]
 80008dc:	0c00      	lsrs	r0, r0, #16
 80008de:	4770      	bx	lr
 80008e0:	e0042000 	.word	0xe0042000

080008e4 <HAL_GetDEVID>:
 80008e4:	4b02      	ldr	r3, [pc, #8]	@ (80008f0 <HAL_GetDEVID+0xc>)
 80008e6:	6818      	ldr	r0, [r3, #0]
 80008e8:	f3c0 000b 	ubfx	r0, r0, #0, #12
 80008ec:	4770      	bx	lr
 80008ee:	bf00      	nop
 80008f0:	e0042000 	.word	0xe0042000

080008f4 <HAL_GetUIDw0>:
 80008f4:	4b01      	ldr	r3, [pc, #4]	@ (80008fc <HAL_GetUIDw0+0x8>)
 80008f6:	f8d3 07ac 	ldr.w	r0, [r3, #1964]	@ 0x7ac
 80008fa:	4770      	bx	lr
 80008fc:	1ffff000 	.word	0x1ffff000

08000900 <HAL_GetUIDw1>:
 8000900:	4b01      	ldr	r3, [pc, #4]	@ (8000908 <HAL_GetUIDw1+0x8>)
 8000902:	f8d3 07b0 	ldr.w	r0, [r3, #1968]	@ 0x7b0
 8000906:	4770      	bx	lr
 8000908:	1ffff000 	.word	0x1ffff000

0800090c <HAL_GetUIDw2>:
 800090c:	4b01      	ldr	r3, [pc, #4]	@ (8000914 <HAL_GetUIDw2+0x8>)
 800090e:	f8d3 07b4 	ldr.w	r0, [r3, #1972]	@ 0x7b4
 8000912:	4770      	bx	lr
 8000914:	1ffff000 	.word	0x1ffff000

08000918 <HAL_DBGMCU_EnableDBGSleepMode>:
 8000918:	4a02      	ldr	r2, [pc, #8]	@ (8000924 <HAL_DBGMCU_EnableDBGSleepMode+0xc>)
 800091a:	6853      	ldr	r3, [r2, #4]
 800091c:	f043 0301 	orr.w	r3, r3, #1
 8000920:	6053      	str	r3, [r2, #4]
 8000922:	4770      	bx	lr
 8000924:	e0042000 	.word	0xe0042000

08000928 <HAL_DBGMCU_DisableDBGSleepMode>:
 8000928:	4a02      	ldr	r2, [pc, #8]	@ (8000934 <HAL_DBGMCU_DisableDBGSleepMode+0xc>)
 800092a:	6853      	ldr	r3, [r2, #4]
 800092c:	f023 0301 	bic.w	r3, r3, #1
 8000930:	6053      	str	r3, [r2, #4]
 8000932:	4770      	bx	lr
 8000934:	e0042000 	.word	0xe0042000

08000938 <HAL_DBGMCU_EnableDBGStopMode>:
 8000938:	4a02      	ldr	r2, [pc, #8]	@ (8000944 <HAL_DBGMCU_EnableDBGStopMode+0xc>)
 800093a:	6853      	ldr	r3, [r2, #4]
 800093c:	f043 0302 	orr.w	r3, r3, #2
 8000940:	6053      	str	r3, [r2, #4]
 8000942:	4770      	bx	lr
 8000944:	e0042000 	.word	0xe0042000

08000948 <HAL_DBGMCU_DisableDBGStopMode>:
 8000948:	4a02      	ldr	r2, [pc, #8]	@ (8000954 <HAL_DBGMCU_DisableDBGStopMode+0xc>)
 800094a:	6853      	ldr	r3, [r2, #4]
 800094c:	f023 0302 	bic.w	r3, r3, #2
 8000950:	6053      	str	r3, [r2, #4]
 8000952:	4770      	bx	lr
 8000954:	e0042000 	.word	0xe0042000

08000958 <HAL_DBGMCU_EnableDBGStandbyMode>:
 8000958:	4a02      	ldr	r2, [pc, #8]	@ (8000964 <HAL_DBGMCU_EnableDBGStandbyMode+0xc>)
 800095a:	6853      	ldr	r3, [r2, #4]
 800095c:	f043 0304 	orr.w	r3, r3, #4
 8000960:	6053      	str	r3, [r2, #4]
 8000962:	4770      	bx	lr
 8000964:	e0042000 	.word	0xe0042000

08000968 <HAL_DBGMCU_DisableDBGStandbyMode>:
 8000968:	4a02      	ldr	r2, [pc, #8]	@ (8000974 <HAL_DBGMCU_DisableDBGStandbyMode+0xc>)
 800096a:	6853      	ldr	r3, [r2, #4]
 800096c:	f023 0304 	bic.w	r3, r3, #4
 8000970:	6053      	str	r3, [r2, #4]
 8000972:	4770      	bx	lr
 8000974:	e0042000 	.word	0xe0042000

08000978 <HAL_NVIC_SetPriorityGrouping>:
 8000978:	4907      	ldr	r1, [pc, #28]	@ (8000998 <HAL_NVIC_SetPriorityGrouping+0x20>)
 800097a:	68ca      	ldr	r2, [r1, #12]
 800097c:	0203      	lsls	r3, r0, #8
 800097e:	f64f 00ff 	movw	r0, #63743	@ 0xf8ff
 8000982:	f403 63e0 	and.w	r3, r3, #1792	@ 0x700
 8000986:	4002      	ands	r2, r0
 8000988:	4313      	orrs	r3, r2
 800098a:	f043 63bf 	orr.w	r3, r3, #100139008	@ 0x5f80000
 800098e:	f443 3300 	orr.w	r3, r3, #131072	@ 0x20000
 8000992:	60cb      	str	r3, [r1, #12]
 8000994:	4770      	bx	lr
 8000996:	bf00      	nop
 8000998:	e000ed00 	.word	0xe000ed00

0800099c <HAL_NVIC_SetPriority>:
 800099c:	4b1b      	ldr	r3, [pc, #108]	@ (8000a0c <HAL_NVIC_SetPriority+0x70>)
 800099e:	68db      	ldr	r3, [r3, #12]
 80009a0:	f3c3 2302 	ubfx	r3, r3, #8, #3
 80009a4:	b500      	push	{lr}
 80009a6:	f1c3 0e07 	rsb	lr, r3, #7
 80009aa:	f1be 0f04 	cmp.w	lr, #4
 80009ae:	f103 0c04 	add.w	ip, r3, #4
 80009b2:	bf28      	it	cs
 80009b4:	f04f 0e04 	movcs.w	lr, #4
 80009b8:	f1bc 0f06 	cmp.w	ip, #6
 80009bc:	d91c      	bls.n	80009f8 <HAL_NVIC_SetPriority+0x5c>
 80009be:	f1a3 0c03 	sub.w	ip, r3, #3
 80009c2:	f04f 33ff 	mov.w	r3, #4294967295
 80009c6:	fa03 f30c 	lsl.w	r3, r3, ip
 80009ca:	ea22 0203 	bic.w	r2, r2, r3
 80009ce:	f04f 33ff 	mov.w	r3, #4294967295
 80009d2:	fa03 f30e 	lsl.w	r3, r3, lr
 80009d6:	ea21 0303 	bic.w	r3, r1, r3
 80009da:	fa03 f30c 	lsl.w	r3, r3, ip
 80009de:	4313      	orrs	r3, r2
 80009e0:	011b      	lsls	r3, r3, #4
 80009e2:	2800      	cmp	r0, #0
 80009e4:	b2db      	uxtb	r3, r3
 80009e6:	db0a      	blt.n	80009fe <HAL_NVIC_SetPriority+0x62>
 80009e8:	f100 4060 	add.w	r0, r0, #3758096384	@ 0xe0000000
 80009ec:	f500 4061 	add.w	r0, r0, #57600	@ 0xe100
 80009f0:	f880 3300 	strb.w	r3, [r0, #768]	@ 0x300
 80009f4:	f85d fb04 	ldr.w	pc, [sp], #4
 80009f8:	2200      	movs	r2, #0
 80009fa:	4694      	mov	ip, r2
 80009fc:	e7e7      	b.n	80009ce <HAL_NVIC_SetPriority+0x32>
 80009fe:	4a04      	ldr	r2, [pc, #16]	@ (8000a10 <HAL_NVIC_SetPriority+0x74>)
 8000a00:	f000 000f 	and.w	r0, r0, #15
 8000a04:	4402      	add	r2, r0
 8000a06:	7613      	strb	r3, [r2, #24]
 8000a08:	f85d fb04 	ldr.w	pc, [sp], #4
 8000a0c:	e000ed00 	.word	0xe000ed00
 8000a10:	e000ecfc 	.word	0xe000ecfc

08000a14 <HAL_NVIC_EnableIRQ>:
 8000a14:	2800      	cmp	r0, #0
 8000a16:	db07      	blt.n	8000a28 <HAL_NVIC_EnableIRQ+0x14>
 8000a18:	0941      	lsrs	r1, r0, #5
 8000a1a:	4a04      	ldr	r2, [pc, #16]	@ (8000a2c <HAL_NVIC_EnableIRQ+0x18>)
 8000a1c:	f000 001f 	and.w	r0, r0, #31
 8000a20:	2301      	movs	r3, #1
 8000a22:	4083      	lsls	r3, r0
 8000a24:	f842 3021 	str.w	r3, [r2, r1, lsl #2]
 8000a28:	4770      	bx	lr
 8000a2a:	bf00      	nop
 8000a2c:	e000e100 	.word	0xe000e100

08000a30 <HAL_NVIC_DisableIRQ>:
 8000a30:	2800      	cmp	r0, #0
 8000a32:	db0c      	blt.n	8000a4e <HAL_NVIC_DisableIRQ+0x1e>
 8000a34:	0943      	lsrs	r3, r0, #5
 8000a36:	4906      	ldr	r1, [pc, #24]	@ (8000a50 <HAL_NVIC_DisableIRQ+0x20>)
 8000a38:	f000 001f 	and.w	r0, r0, #31
 8000a3c:	3320      	adds	r3, #32
 8000a3e:	2201      	movs	r2, #1
 8000a40:	4082      	lsls	r2, r0
 8000a42:	f841 2023 	str.w	r2, [r1, r3, lsl #2]
 8000a46:	f3bf 8f4f 	dsb	sy
 8000a4a:	f3bf 8f6f 	isb	sy
 8000a4e:	4770      	bx	lr
 8000a50:	e000e100 	.word	0xe000e100

08000a54 <HAL_NVIC_SystemReset>:
 8000a54:	f3bf 8f4f 	dsb	sy
 8000a58:	4905      	ldr	r1, [pc, #20]	@ (8000a70 <HAL_NVIC_SystemReset+0x1c>)
 8000a5a:	4b06      	ldr	r3, [pc, #24]	@ (8000a74 <HAL_NVIC_SystemReset+0x20>)
 8000a5c:	68ca      	ldr	r2, [r1, #12]
 8000a5e:	f402 62e0 	and.w	r2, r2, #1792	@ 0x700
 8000a62:	4313      	orrs	r3, r2
 8000a64:	60cb      	str	r3, [r1, #12]
 8000a66:	f3bf 8f4f 	dsb	sy
 8000a6a:	bf00      	nop
 8000a6c:	e7fd      	b.n	8000a6a <HAL_NVIC_SystemReset+0x16>
 8000a6e:	bf00      	nop
 8000a70:	e000ed00 	.word	0xe000ed00
 8000a74:	05fa0004 	.word	0x05fa0004

08000a78 <HAL_SYSTICK_Config>:
 8000a78:	3801      	subs	r0, #1
 8000a7a:	f1b0 7f80 	cmp.w	r0, #16777216	@ 0x1000000
 8000a7e:	d301      	bcc.n	8000a84 <HAL_SYSTICK_Config+0xc>
 8000a80:	2001      	movs	r0, #1
 8000a82:	4770      	bx	lr
 8000a84:	b410      	push	{r4}
 8000a86:	f04f 23e0 	mov.w	r3, #3758153728	@ 0xe000e000
 8000a8a:	4c07      	ldr	r4, [pc, #28]	@ (8000aa8 <HAL_SYSTICK_Config+0x30>)
 8000a8c:	6158      	str	r0, [r3, #20]
 8000a8e:	f04f 0cf0 	mov.w	ip, #240	@ 0xf0
 8000a92:	f884 c023 	strb.w	ip, [r4, #35]	@ 0x23
 8000a96:	2200      	movs	r2, #0
 8000a98:	2107      	movs	r1, #7
 8000a9a:	4610      	mov	r0, r2
 8000a9c:	619a      	str	r2, [r3, #24]
 8000a9e:	f85d 4b04 	ldr.w	r4, [sp], #4
 8000aa2:	6119      	str	r1, [r3, #16]
 8000aa4:	4770      	bx	lr
 8000aa6:	bf00      	nop
 8000aa8:	e000ed00 	.word	0xe000ed00

08000aac <HAL_MPU_Disable>:
 8000aac:	4b04      	ldr	r3, [pc, #16]	@ (8000ac0 <HAL_MPU_Disable+0x14>)
 8000aae:	6a5a      	ldr	r2, [r3, #36]	@ 0x24
 8000ab0:	2100      	movs	r1, #0
 8000ab2:	f422 3280 	bic.w	r2, r2, #65536	@ 0x10000
 8000ab6:	625a      	str	r2, [r3, #36]	@ 0x24
 8000ab8:	f8c3 1094 	str.w	r1, [r3, #148]	@ 0x94
 8000abc:	4770      	bx	lr
 8000abe:	bf00      	nop
 8000ac0:	e000ed00 	.word	0xe000ed00

08000ac4 <HAL_MPU_Enable>:
 8000ac4:	4b04      	ldr	r3, [pc, #16]	@ (8000ad8 <HAL_MPU_Enable+0x14>)
 8000ac6:	f040 0001 	orr.w	r0, r0, #1
 8000aca:	f8c3 0094 	str.w	r0, [r3, #148]	@ 0x94
 8000ace:	6a5a      	ldr	r2, [r3, #36]	@ 0x24
 8000ad0:	f442 3280 	orr.w	r2, r2, #65536	@ 0x10000
 8000ad4:	625a      	str	r2, [r3, #36]	@ 0x24
 8000ad6:	4770      	bx	lr
 8000ad8:	e000ed00 	.word	0xe000ed00

08000adc <HAL_MPU_EnableRegion>:
 8000adc:	4b04      	ldr	r3, [pc, #16]	@ (8000af0 <HAL_MPU_EnableRegion+0x14>)
 8000ade:	f8c3 0098 	str.w	r0, [r3, #152]	@ 0x98
 8000ae2:	f8d3 20a0 	ldr.w	r2, [r3, #160]	@ 0xa0
 8000ae6:	f042 0201 	orr.w	r2, r2, #1
 8000aea:	f8c3 20a0 	str.w	r2, [r3, #160]	@ 0xa0
 8000aee:	4770      	bx	lr
 8000af0:	e000ed00 	.word	0xe000ed00

08000af4 <HAL_MPU_DisableRegion>:
 8000af4:	4b04      	ldr	r3, [pc, #16]	@ (8000b08 <HAL_MPU_DisableRegion+0x14>)
 8000af6:	f8c3 0098 	str.w	r0, [r3, #152]	@ 0x98
 8000afa:	f8d3 20a0 	ldr.w	r2, [r3, #160]	@ 0xa0
 8000afe:	f022 0201 	bic.w	r2, r2, #1
 8000b02:	f8c3 20a0 	str.w	r2, [r3, #160]	@ 0xa0
 8000b06:	4770      	bx	lr
 8000b08:	e000ed00 	.word	0xe000ed00

08000b0c <HAL_MPU_ConfigRegion>:
 8000b0c:	4a16      	ldr	r2, [pc, #88]	@ (8000b68 <HAL_MPU_ConfigRegion+0x5c>)
 8000b0e:	7843      	ldrb	r3, [r0, #1]
 8000b10:	f8c2 3098 	str.w	r3, [r2, #152]	@ 0x98
 8000b14:	f8d2 30a0 	ldr.w	r3, [r2, #160]	@ 0xa0
 8000b18:	f023 0301 	bic.w	r3, r3, #1
 8000b1c:	f8c2 30a0 	str.w	r3, [r2, #160]	@ 0xa0
 8000b20:	6843      	ldr	r3, [r0, #4]
 8000b22:	f8c2 309c 	str.w	r3, [r2, #156]	@ 0x9c
 8000b26:	7ac3      	ldrb	r3, [r0, #11]
 8000b28:	f890 c00c 	ldrb.w	ip, [r0, #12]
 8000b2c:	7801      	ldrb	r1, [r0, #0]
 8000b2e:	061b      	lsls	r3, r3, #24
 8000b30:	ea43 730c 	orr.w	r3, r3, ip, lsl #28
 8000b34:	f890 c00a 	ldrb.w	ip, [r0, #10]
 8000b38:	430b      	orrs	r3, r1
 8000b3a:	7b41      	ldrb	r1, [r0, #13]
 8000b3c:	ea43 43cc 	orr.w	r3, r3, ip, lsl #19
 8000b40:	f890 c00e 	ldrb.w	ip, [r0, #14]
 8000b44:	ea43 4381 	orr.w	r3, r3, r1, lsl #18
 8000b48:	7bc1      	ldrb	r1, [r0, #15]
 8000b4a:	ea43 434c 	orr.w	r3, r3, ip, lsl #17
 8000b4e:	f890 c009 	ldrb.w	ip, [r0, #9]
 8000b52:	ea43 4301 	orr.w	r3, r3, r1, lsl #16
 8000b56:	7a01      	ldrb	r1, [r0, #8]
 8000b58:	ea43 230c 	orr.w	r3, r3, ip, lsl #8
 8000b5c:	ea43 0341 	orr.w	r3, r3, r1, lsl #1
 8000b60:	f8c2 30a0 	str.w	r3, [r2, #160]	@ 0xa0
 8000b64:	4770      	bx	lr
 8000b66:	bf00      	nop
 8000b68:	e000ed00 	.word	0xe000ed00

08000b6c <HAL_NVIC_GetPriorityGrouping>:
 8000b6c:	4b02      	ldr	r3, [pc, #8]	@ (8000b78 <HAL_NVIC_GetPriorityGrouping+0xc>)
 8000b6e:	68d8      	ldr	r0, [r3, #12]
 8000b70:	f3c0 2002 	ubfx	r0, r0, #8, #3
 8000b74:	4770      	bx	lr
 8000b76:	bf00      	nop
 8000b78:	e000ed00 	.word	0xe000ed00

08000b7c <HAL_NVIC_GetPriority>:
 8000b7c:	2800      	cmp	r0, #0
 8000b7e:	b410      	push	{r4}
 8000b80:	db27      	blt.n	8000bd2 <HAL_NVIC_GetPriority+0x56>
 8000b82:	f100 4060 	add.w	r0, r0, #3758096384	@ 0xe0000000
 8000b86:	f500 4061 	add.w	r0, r0, #57600	@ 0xe100
 8000b8a:	f890 0300 	ldrb.w	r0, [r0, #768]	@ 0x300
 8000b8e:	0900      	lsrs	r0, r0, #4
 8000b90:	f001 0107 	and.w	r1, r1, #7
 8000b94:	f1c1 0c07 	rsb	ip, r1, #7
 8000b98:	f1bc 0f04 	cmp.w	ip, #4
 8000b9c:	f101 0404 	add.w	r4, r1, #4
 8000ba0:	bf28      	it	cs
 8000ba2:	f04f 0c04 	movcs.w	ip, #4
 8000ba6:	2c06      	cmp	r4, #6
 8000ba8:	d911      	bls.n	8000bce <HAL_NVIC_GetPriority+0x52>
 8000baa:	3903      	subs	r1, #3
 8000bac:	f04f 34ff 	mov.w	r4, #4294967295
 8000bb0:	408c      	lsls	r4, r1
 8000bb2:	ea20 0404 	bic.w	r4, r0, r4
 8000bb6:	40c8      	lsrs	r0, r1
 8000bb8:	f04f 31ff 	mov.w	r1, #4294967295
 8000bbc:	fa01 f10c 	lsl.w	r1, r1, ip
 8000bc0:	ea20 0001 	bic.w	r0, r0, r1
 8000bc4:	6010      	str	r0, [r2, #0]
 8000bc6:	601c      	str	r4, [r3, #0]
 8000bc8:	f85d 4b04 	ldr.w	r4, [sp], #4
 8000bcc:	4770      	bx	lr
 8000bce:	2400      	movs	r4, #0
 8000bd0:	e7f2      	b.n	8000bb8 <HAL_NVIC_GetPriority+0x3c>
 8000bd2:	4c03      	ldr	r4, [pc, #12]	@ (8000be0 <HAL_NVIC_GetPriority+0x64>)
 8000bd4:	f000 000f 	and.w	r0, r0, #15
 8000bd8:	4404      	add	r4, r0
 8000bda:	7e20      	ldrb	r0, [r4, #24]
 8000bdc:	0900      	lsrs	r0, r0, #4
 8000bde:	e7d7      	b.n	8000b90 <HAL_NVIC_GetPriority+0x14>
 8000be0:	e000ecfc 	.word	0xe000ecfc

08000be4 <HAL_NVIC_SetPendingIRQ>:
 8000be4:	2800      	cmp	r0, #0
 8000be6:	db08      	blt.n	8000bfa <HAL_NVIC_SetPendingIRQ+0x16>
 8000be8:	0943      	lsrs	r3, r0, #5
 8000bea:	4904      	ldr	r1, [pc, #16]	@ (8000bfc <HAL_NVIC_SetPendingIRQ+0x18>)
 8000bec:	f000 001f 	and.w	r0, r0, #31
 8000bf0:	2201      	movs	r2, #1
 8000bf2:	3340      	adds	r3, #64	@ 0x40
 8000bf4:	4082      	lsls	r2, r0
 8000bf6:	f841 2023 	str.w	r2, [r1, r3, lsl #2]
 8000bfa:	4770      	bx	lr
 8000bfc:	e000e100 	.word	0xe000e100

08000c00 <HAL_NVIC_GetPendingIRQ>:
 8000c00:	2800      	cmp	r0, #0
 8000c02:	db0b      	blt.n	8000c1c <HAL_NVIC_GetPendingIRQ+0x1c>
 8000c04:	0943      	lsrs	r3, r0, #5
 8000c06:	4a06      	ldr	r2, [pc, #24]	@ (8000c20 <HAL_NVIC_GetPendingIRQ+0x20>)
 8000c08:	3340      	adds	r3, #64	@ 0x40
 8000c0a:	f000 001f 	and.w	r0, r0, #31
 8000c0e:	f852 3023 	ldr.w	r3, [r2, r3, lsl #2]
 8000c12:	fa23 f000 	lsr.w	r0, r3, r0
 8000c16:	f000 0001 	and.w	r0, r0, #1
 8000c1a:	4770      	bx	lr
 8000c1c:	2000      	movs	r0, #0
 8000c1e:	4770      	bx	lr
 8000c20:	e000e100 	.word	0xe000e100

08000c24 <HAL_NVIC_ClearPendingIRQ>:
 8000c24:	2800      	cmp	r0, #0
 8000c26:	db08      	blt.n	8000c3a <HAL_NVIC_ClearPendingIRQ+0x16>
 8000c28:	0943      	lsrs	r3, r0, #5
 8000c2a:	4904      	ldr	r1, [pc, #16]	@ (8000c3c <HAL_NVIC_ClearPendingIRQ+0x18>)
 8000c2c:	f000 001f 	and.w	r0, r0, #31
 8000c30:	2201      	movs	r2, #1
 8000c32:	3360      	adds	r3, #96	@ 0x60
 8000c34:	4082      	lsls	r2, r0
 8000c36:	f841 2023 	str.w	r2, [r1, r3, lsl #2]
 8000c3a:	4770      	bx	lr
 8000c3c:	e000e100 	.word	0xe000e100

08000c40 <HAL_NVIC_GetActive>:
 8000c40:	2800      	cmp	r0, #0
 8000c42:	db0b      	blt.n	8000c5c <HAL_NVIC_GetActive+0x1c>
 8000c44:	0943      	lsrs	r3, r0, #5
 8000c46:	4a06      	ldr	r2, [pc, #24]	@ (8000c60 <HAL_NVIC_GetActive+0x20>)
 8000c48:	3380      	adds	r3, #128	@ 0x80
 8000c4a:	f000 001f 	and.w	r0, r0, #31
 8000c4e:	f852 3023 	ldr.w	r3, [r2, r3, lsl #2]
 8000c52:	fa23 f000 	lsr.w	r0, r3, r0
 8000c56:	f000 0001 	and.w	r0, r0, #1
 8000c5a:	4770      	bx	lr
 8000c5c:	2000      	movs	r0, #0
 8000c5e:	4770      	bx	lr
 8000c60:	e000e100 	.word	0xe000e100

08000c64 <HAL_SYSTICK_CLKSourceConfig>:
 8000c64:	f04f 22e0 	mov.w	r2, #3758153728	@ 0xe000e000
 8000c68:	2804      	cmp	r0, #4
 8000c6a:	6913      	ldr	r3, [r2, #16]
 8000c6c:	bf0c      	ite	eq
 8000c6e:	f043 0304 	orreq.w	r3, r3, #4
 8000c72:	f023 0304 	bicne.w	r3, r3, #4
 8000c76:	6113      	str	r3, [r2, #16]
 8000c78:	4770      	bx	lr
 8000c7a:	bf00      	nop

08000c7c <HAL_SYSTICK_Callback>:
 8000c7c:	4770      	bx	lr
 8000c7e:	bf00      	nop

08000c80 <HAL_SYSTICK_IRQHandler>:
 8000c80:	b508      	push	{r3, lr}
 8000c82:	f7ff fffb 	bl	8000c7c <HAL_SYSTICK_Callback>
 8000c86:	bd08      	pop	{r3, pc}

08000c88 <HAL_GPIO_Init>:
 8000c88:	e92d 4ff0 	stmdb	sp!, {r4, r5, r6, r7, r8, r9, sl, fp, lr}
 8000c8c:	680c      	ldr	r4, [r1, #0]
 8000c8e:	b085      	sub	sp, #20
 8000c90:	2c00      	cmp	r4, #0
 8000c92:	f000 808f 	beq.w	8000db4 <HAL_GPIO_Init+0x12c>
 8000c96:	2300      	movs	r3, #0
 8000c98:	f04f 0b01 	mov.w	fp, #1
 8000c9c:	fa0b fe03 	lsl.w	lr, fp, r3
 8000ca0:	ea1e 0a04 	ands.w	sl, lr, r4
 8000ca4:	f000 8081 	beq.w	8000daa <HAL_GPIO_Init+0x122>
 8000ca8:	684d      	ldr	r5, [r1, #4]
 8000caa:	f005 0203 	and.w	r2, r5, #3
 8000cae:	ea4f 0c43 	mov.w	ip, r3, lsl #1
 8000cb2:	2603      	movs	r6, #3
 8000cb4:	f102 38ff 	add.w	r8, r2, #4294967295
 8000cb8:	fa06 f70c 	lsl.w	r7, r6, ip
 8000cbc:	f1b8 0f01 	cmp.w	r8, #1
 8000cc0:	ea6f 0707 	mvn.w	r7, r7
 8000cc4:	d979      	bls.n	8000dba <HAL_GPIO_Init+0x132>
 8000cc6:	2a03      	cmp	r2, #3
 8000cc8:	f040 80b5 	bne.w	8000e36 <HAL_GPIO_Init+0x1ae>
 8000ccc:	fa02 f20c 	lsl.w	r2, r2, ip
 8000cd0:	f8d0 c000 	ldr.w	ip, [r0]
 8000cd4:	ea0c 0707 	and.w	r7, ip, r7
 8000cd8:	433a      	orrs	r2, r7
 8000cda:	f415 3f40 	tst.w	r5, #196608	@ 0x30000
 8000cde:	6002      	str	r2, [r0, #0]
 8000ce0:	d063      	beq.n	8000daa <HAL_GPIO_Init+0x122>
 8000ce2:	4f6c      	ldr	r7, [pc, #432]	@ (8000e94 <HAL_GPIO_Init+0x20c>)
 8000ce4:	69ba      	ldr	r2, [r7, #24]
 8000ce6:	f042 0201 	orr.w	r2, r2, #1
 8000cea:	61ba      	str	r2, [r7, #24]
 8000cec:	69ba      	ldr	r2, [r7, #24]
 8000cee:	f002 0201 	and.w	r2, r2, #1
 8000cf2:	9203      	str	r2, [sp, #12]
 8000cf4:	9a03      	ldr	r2, [sp, #12]
 8000cf6:	f023 0203 	bic.w	r2, r3, #3
 8000cfa:	f102 4280 	add.w	r2, r2, #1073741824	@ 0x40000000
 8000cfe:	f502 3280 	add.w	r2, r2, #65536	@ 0x10000
 8000d02:	f003 0c03 	and.w	ip, r3, #3
 8000d06:	6897      	ldr	r7, [r2, #8]
 8000d08:	ea4f 0c8c 	mov.w	ip, ip, lsl #2
 8000d0c:	260f      	movs	r6, #15
 8000d0e:	fa06 fe0c 	lsl.w	lr, r6, ip
 8000d12:	f1b0 4f90 	cmp.w	r0, #1207959552	@ 0x48000000
 8000d16:	ea27 070e 	bic.w	r7, r7, lr
 8000d1a:	d022      	beq.n	8000d62 <HAL_GPIO_Init+0xda>
 8000d1c:	4e5e      	ldr	r6, [pc, #376]	@ (8000e98 <HAL_GPIO_Init+0x210>)
 8000d1e:	42b0      	cmp	r0, r6
 8000d20:	f000 809c 	beq.w	8000e5c <HAL_GPIO_Init+0x1d4>
 8000d24:	4e5d      	ldr	r6, [pc, #372]	@ (8000e9c <HAL_GPIO_Init+0x214>)
 8000d26:	42b0      	cmp	r0, r6
 8000d28:	f000 809f 	beq.w	8000e6a <HAL_GPIO_Init+0x1e2>
 8000d2c:	f8df e174 	ldr.w	lr, [pc, #372]	@ 8000ea4 <HAL_GPIO_Init+0x21c>
 8000d30:	4570      	cmp	r0, lr
 8000d32:	f000 808c 	beq.w	8000e4e <HAL_GPIO_Init+0x1c6>
 8000d36:	f8df e170 	ldr.w	lr, [pc, #368]	@ 8000ea8 <HAL_GPIO_Init+0x220>
 8000d3a:	4570      	cmp	r0, lr
 8000d3c:	f000 809c 	beq.w	8000e78 <HAL_GPIO_Init+0x1f0>
 8000d40:	f8df e168 	ldr.w	lr, [pc, #360]	@ 8000eac <HAL_GPIO_Init+0x224>
 8000d44:	4570      	cmp	r0, lr
 8000d46:	f000 809e 	beq.w	8000e86 <HAL_GPIO_Init+0x1fe>
 8000d4a:	f8df e164 	ldr.w	lr, [pc, #356]	@ 8000eb0 <HAL_GPIO_Init+0x228>
 8000d4e:	4570      	cmp	r0, lr
 8000d50:	bf0c      	ite	eq
 8000d52:	f04f 0e06 	moveq.w	lr, #6
 8000d56:	f04f 0e07 	movne.w	lr, #7
 8000d5a:	fa0e fc0c 	lsl.w	ip, lr, ip
 8000d5e:	ea47 070c 	orr.w	r7, r7, ip
 8000d62:	6097      	str	r7, [r2, #8]
 8000d64:	4a4e      	ldr	r2, [pc, #312]	@ (8000ea0 <HAL_GPIO_Init+0x218>)
 8000d66:	6892      	ldr	r2, [r2, #8]
 8000d68:	02ee      	lsls	r6, r5, #11
 8000d6a:	ea6f 070a 	mvn.w	r7, sl
 8000d6e:	4e4c      	ldr	r6, [pc, #304]	@ (8000ea0 <HAL_GPIO_Init+0x218>)
 8000d70:	bf54      	ite	pl
 8000d72:	403a      	andpl	r2, r7
 8000d74:	ea4a 0202 	orrmi.w	r2, sl, r2
 8000d78:	60b2      	str	r2, [r6, #8]
 8000d7a:	68f2      	ldr	r2, [r6, #12]
 8000d7c:	02ae      	lsls	r6, r5, #10
 8000d7e:	4e48      	ldr	r6, [pc, #288]	@ (8000ea0 <HAL_GPIO_Init+0x218>)
 8000d80:	bf54      	ite	pl
 8000d82:	403a      	andpl	r2, r7
 8000d84:	ea4a 0202 	orrmi.w	r2, sl, r2
 8000d88:	60f2      	str	r2, [r6, #12]
 8000d8a:	6872      	ldr	r2, [r6, #4]
 8000d8c:	03ae      	lsls	r6, r5, #14
 8000d8e:	4e44      	ldr	r6, [pc, #272]	@ (8000ea0 <HAL_GPIO_Init+0x218>)
 8000d90:	bf54      	ite	pl
 8000d92:	403a      	andpl	r2, r7
 8000d94:	ea4a 0202 	orrmi.w	r2, sl, r2
 8000d98:	6072      	str	r2, [r6, #4]
 8000d9a:	6832      	ldr	r2, [r6, #0]
 8000d9c:	03ed      	lsls	r5, r5, #15
 8000d9e:	4d40      	ldr	r5, [pc, #256]	@ (8000ea0 <HAL_GPIO_Init+0x218>)
 8000da0:	bf54      	ite	pl
 8000da2:	403a      	andpl	r2, r7
 8000da4:	ea4a 0202 	orrmi.w	r2, sl, r2
 8000da8:	602a      	str	r2, [r5, #0]
 8000daa:	3301      	adds	r3, #1
 8000dac:	fa34 f203 	lsrs.w	r2, r4, r3
 8000db0:	f47f af74 	bne.w	8000c9c <HAL_GPIO_Init+0x14>
 8000db4:	b005      	add	sp, #20
 8000db6:	e8bd 8ff0 	ldmia.w	sp!, {r4, r5, r6, r7, r8, r9, sl, fp, pc}
 8000dba:	f8d0 9008 	ldr.w	r9, [r0, #8]
 8000dbe:	68ce      	ldr	r6, [r1, #12]
 8000dc0:	ea09 0907 	and.w	r9, r9, r7
 8000dc4:	fa06 f80c 	lsl.w	r8, r6, ip
 8000dc8:	ea48 0809 	orr.w	r8, r8, r9
 8000dcc:	f8c0 8008 	str.w	r8, [r0, #8]
 8000dd0:	f8d0 8004 	ldr.w	r8, [r0, #4]
 8000dd4:	688e      	ldr	r6, [r1, #8]
 8000dd6:	ea28 080e 	bic.w	r8, r8, lr
 8000dda:	f3c5 1e00 	ubfx	lr, r5, #4, #1
 8000dde:	fa0e fe03 	lsl.w	lr, lr, r3
 8000de2:	ea4e 0e08 	orr.w	lr, lr, r8
 8000de6:	f8c0 e004 	str.w	lr, [r0, #4]
 8000dea:	f8d0 800c 	ldr.w	r8, [r0, #12]
 8000dee:	fa06 fe0c 	lsl.w	lr, r6, ip
 8000df2:	ea08 0807 	and.w	r8, r8, r7
 8000df6:	ea4e 0e08 	orr.w	lr, lr, r8
 8000dfa:	2a02      	cmp	r2, #2
 8000dfc:	f8c0 e00c 	str.w	lr, [r0, #12]
 8000e00:	f47f af64 	bne.w	8000ccc <HAL_GPIO_Init+0x44>
 8000e04:	690e      	ldr	r6, [r1, #16]
 8000e06:	ea4f 08d3 	mov.w	r8, r3, lsr #3
 8000e0a:	f003 0e07 	and.w	lr, r3, #7
 8000e0e:	eb00 0888 	add.w	r8, r0, r8, lsl #2
 8000e12:	ea4f 0e8e 	mov.w	lr, lr, lsl #2
 8000e16:	fa06 f60e 	lsl.w	r6, r6, lr
 8000e1a:	f8d8 9020 	ldr.w	r9, [r8, #32]
 8000e1e:	9601      	str	r6, [sp, #4]
 8000e20:	260f      	movs	r6, #15
 8000e22:	fa06 fe0e 	lsl.w	lr, r6, lr
 8000e26:	9e01      	ldr	r6, [sp, #4]
 8000e28:	ea29 090e 	bic.w	r9, r9, lr
 8000e2c:	ea46 0e09 	orr.w	lr, r6, r9
 8000e30:	f8c8 e020 	str.w	lr, [r8, #32]
 8000e34:	e74a      	b.n	8000ccc <HAL_GPIO_Init+0x44>
 8000e36:	f8d0 800c 	ldr.w	r8, [r0, #12]
 8000e3a:	688e      	ldr	r6, [r1, #8]
 8000e3c:	ea08 0807 	and.w	r8, r8, r7
 8000e40:	fa06 fe0c 	lsl.w	lr, r6, ip
 8000e44:	ea4e 0e08 	orr.w	lr, lr, r8
 8000e48:	f8c0 e00c 	str.w	lr, [r0, #12]
 8000e4c:	e73e      	b.n	8000ccc <HAL_GPIO_Init+0x44>
 8000e4e:	f04f 0e03 	mov.w	lr, #3
 8000e52:	fa0e fc0c 	lsl.w	ip, lr, ip
 8000e56:	ea47 070c 	orr.w	r7, r7, ip
 8000e5a:	e782      	b.n	8000d62 <HAL_GPIO_Init+0xda>
 8000e5c:	f04f 0e01 	mov.w	lr, #1
 8000e60:	fa0e fc0c 	lsl.w	ip, lr, ip
 8000e64:	ea47 070c 	orr.w	r7, r7, ip
 8000e68:	e77b      	b.n	8000d62 <HAL_GPIO_Init+0xda>
 8000e6a:	f04f 0e02 	mov.w	lr, #2
 8000e6e:	fa0e fc0c 	lsl.w	ip, lr, ip
 8000e72:	ea47 070c 	orr.w	r7, r7, ip
 8000e76:	e774      	b.n	8000d62 <HAL_GPIO_Init+0xda>
 8000e78:	f04f 0e04 	mov.w	lr, #4
 8000e7c:	fa0e fc0c 	lsl.w	ip, lr, ip
 8000e80:	ea47 070c 	orr.w	r7, r7, ip
 8000e84:	e76d      	b.n	8000d62 <HAL_GPIO_Init+0xda>
 8000e86:	f04f 0e05 	mov.w	lr, #5
 8000e8a:	fa0e fc0c 	lsl.w	ip, lr, ip
 8000e8e:	ea47 070c 	orr.w	r7, r7, ip
 8000e92:	e766      	b.n	8000d62 <HAL_GPIO_Init+0xda>
 8000e94:	40021000 	.word	0x40021000
 8000e98:	48000400 	.word	0x48000400
 8000e9c:	48000800 	.word	0x48000800
 8000ea0:	40010400 	.word	0x40010400
 8000ea4:	48000c00 	.word	0x48000c00
 8000ea8:	48001000 	.word	0x48001000
 8000eac:	48001400 	.word	0x48001400
 8000eb0:	48001800 	.word	0x48001800

08000eb4 <HAL_GPIO_DeInit>:
 8000eb4:	2900      	cmp	r1, #0
 8000eb6:	f000 8091 	beq.w	8000fdc <HAL_GPIO_DeInit+0x128>
 8000eba:	e92d 4ff0 	stmdb	sp!, {r4, r5, r6, r7, r8, r9, sl, fp, lr}
 8000ebe:	4e48      	ldr	r6, [pc, #288]	@ (8000fe0 <HAL_GPIO_DeInit+0x12c>)
 8000ec0:	2300      	movs	r3, #0
 8000ec2:	f04f 090f 	mov.w	r9, #15
 8000ec6:	f04f 0a03 	mov.w	sl, #3
 8000eca:	2201      	movs	r2, #1
 8000ecc:	409a      	lsls	r2, r3
 8000ece:	ea12 0e01 	ands.w	lr, r2, r1
 8000ed2:	d065      	beq.n	8000fa0 <HAL_GPIO_DeInit+0xec>
 8000ed4:	f023 0503 	bic.w	r5, r3, #3
 8000ed8:	f105 4580 	add.w	r5, r5, #1073741824	@ 0x40000000
 8000edc:	f505 3580 	add.w	r5, r5, #65536	@ 0x10000
 8000ee0:	f003 0403 	and.w	r4, r3, #3
 8000ee4:	f8d5 c008 	ldr.w	ip, [r5, #8]
 8000ee8:	00a4      	lsls	r4, r4, #2
 8000eea:	fa09 f804 	lsl.w	r8, r9, r4
 8000eee:	f1b0 4f90 	cmp.w	r0, #1207959552	@ 0x48000000
 8000ef2:	ea08 0c0c 	and.w	ip, r8, ip
 8000ef6:	d01a      	beq.n	8000f2e <HAL_GPIO_DeInit+0x7a>
 8000ef8:	4f3a      	ldr	r7, [pc, #232]	@ (8000fe4 <HAL_GPIO_DeInit+0x130>)
 8000efa:	42b8      	cmp	r0, r7
 8000efc:	d056      	beq.n	8000fac <HAL_GPIO_DeInit+0xf8>
 8000efe:	4f3a      	ldr	r7, [pc, #232]	@ (8000fe8 <HAL_GPIO_DeInit+0x134>)
 8000f00:	42b8      	cmp	r0, r7
 8000f02:	d057      	beq.n	8000fb4 <HAL_GPIO_DeInit+0x100>
 8000f04:	4f39      	ldr	r7, [pc, #228]	@ (8000fec <HAL_GPIO_DeInit+0x138>)
 8000f06:	42b8      	cmp	r0, r7
 8000f08:	d05e      	beq.n	8000fc8 <HAL_GPIO_DeInit+0x114>
 8000f0a:	4f39      	ldr	r7, [pc, #228]	@ (8000ff0 <HAL_GPIO_DeInit+0x13c>)
 8000f0c:	42b8      	cmp	r0, r7
 8000f0e:	d060      	beq.n	8000fd2 <HAL_GPIO_DeInit+0x11e>
 8000f10:	f8df b0e0 	ldr.w	fp, [pc, #224]	@ 8000ff4 <HAL_GPIO_DeInit+0x140>
 8000f14:	4558      	cmp	r0, fp
 8000f16:	d052      	beq.n	8000fbe <HAL_GPIO_DeInit+0x10a>
 8000f18:	f8df b0dc 	ldr.w	fp, [pc, #220]	@ 8000ff8 <HAL_GPIO_DeInit+0x144>
 8000f1c:	4558      	cmp	r0, fp
 8000f1e:	bf14      	ite	ne
 8000f20:	f04f 0b07 	movne.w	fp, #7
 8000f24:	f04f 0b06 	moveq.w	fp, #6
 8000f28:	fa0b f404 	lsl.w	r4, fp, r4
 8000f2c:	e000      	b.n	8000f30 <HAL_GPIO_DeInit+0x7c>
 8000f2e:	2400      	movs	r4, #0
 8000f30:	45a4      	cmp	ip, r4
 8000f32:	d113      	bne.n	8000f5c <HAL_GPIO_DeInit+0xa8>
 8000f34:	6834      	ldr	r4, [r6, #0]
 8000f36:	ea24 040e 	bic.w	r4, r4, lr
 8000f3a:	6034      	str	r4, [r6, #0]
 8000f3c:	6874      	ldr	r4, [r6, #4]
 8000f3e:	ea24 040e 	bic.w	r4, r4, lr
 8000f42:	6074      	str	r4, [r6, #4]
 8000f44:	68f4      	ldr	r4, [r6, #12]
 8000f46:	ea24 040e 	bic.w	r4, r4, lr
 8000f4a:	60f4      	str	r4, [r6, #12]
 8000f4c:	68b4      	ldr	r4, [r6, #8]
 8000f4e:	ea24 040e 	bic.w	r4, r4, lr
 8000f52:	60b4      	str	r4, [r6, #8]
 8000f54:	68ac      	ldr	r4, [r5, #8]
 8000f56:	ea24 0408 	bic.w	r4, r4, r8
 8000f5a:	60ac      	str	r4, [r5, #8]
 8000f5c:	6804      	ldr	r4, [r0, #0]
 8000f5e:	005d      	lsls	r5, r3, #1
 8000f60:	fa0a f505 	lsl.w	r5, sl, r5
 8000f64:	ea4f 0cd3 	mov.w	ip, r3, lsr #3
 8000f68:	ea24 0405 	bic.w	r4, r4, r5
 8000f6c:	eb00 0c8c 	add.w	ip, r0, ip, lsl #2
 8000f70:	6004      	str	r4, [r0, #0]
 8000f72:	f003 0407 	and.w	r4, r3, #7
 8000f76:	f8dc e020 	ldr.w	lr, [ip, #32]
 8000f7a:	00a4      	lsls	r4, r4, #2
 8000f7c:	fa09 f404 	lsl.w	r4, r9, r4
 8000f80:	ea2e 0404 	bic.w	r4, lr, r4
 8000f84:	f8cc 4020 	str.w	r4, [ip, #32]
 8000f88:	68c4      	ldr	r4, [r0, #12]
 8000f8a:	ea24 0405 	bic.w	r4, r4, r5
 8000f8e:	60c4      	str	r4, [r0, #12]
 8000f90:	6844      	ldr	r4, [r0, #4]
 8000f92:	ea24 0202 	bic.w	r2, r4, r2
 8000f96:	6042      	str	r2, [r0, #4]
 8000f98:	6882      	ldr	r2, [r0, #8]
 8000f9a:	ea22 0205 	bic.w	r2, r2, r5
 8000f9e:	6082      	str	r2, [r0, #8]
 8000fa0:	3301      	adds	r3, #1
 8000fa2:	fa31 f203 	lsrs.w	r2, r1, r3
 8000fa6:	d190      	bne.n	8000eca <HAL_GPIO_DeInit+0x16>
 8000fa8:	e8bd 8ff0 	ldmia.w	sp!, {r4, r5, r6, r7, r8, r9, sl, fp, pc}
 8000fac:	2701      	movs	r7, #1
 8000fae:	fa07 f404 	lsl.w	r4, r7, r4
 8000fb2:	e7bd      	b.n	8000f30 <HAL_GPIO_DeInit+0x7c>
 8000fb4:	f04f 0b02 	mov.w	fp, #2
 8000fb8:	fa0b f404 	lsl.w	r4, fp, r4
 8000fbc:	e7b8      	b.n	8000f30 <HAL_GPIO_DeInit+0x7c>
 8000fbe:	f04f 0b05 	mov.w	fp, #5
 8000fc2:	fa0b f404 	lsl.w	r4, fp, r4
 8000fc6:	e7b3      	b.n	8000f30 <HAL_GPIO_DeInit+0x7c>
 8000fc8:	f04f 0b03 	mov.w	fp, #3
 8000fcc:	fa0b f404 	lsl.w	r4, fp, r4
 8000fd0:	e7ae      	b.n	8000f30 <HAL_GPIO_DeInit+0x7c>
 8000fd2:	f04f 0b04 	mov.w	fp, #4
 8000fd6:	fa0b f404 	lsl.w	r4, fp, r4
 8000fda:	e7a9      	b.n	8000f30 <HAL_GPIO_DeInit+0x7c>
 8000fdc:	4770      	bx	lr
 8000fde:	bf00      	nop
 8000fe0:	40010400 	.word	0x40010400
 8000fe4:	48000400 	.word	0x48000400
 8000fe8:	48000800 	.word	0x48000800
 8000fec:	48000c00 	.word	0x48000c00
 8000ff0:	48001000 	.word	0x48001000
 8000ff4:	48001400 	.word	0x48001400
 8000ff8:	48001800 	.word	0x48001800

08000ffc <HAL_GPIO_ReadPin>:
 8000ffc:	6903      	ldr	r3, [r0, #16]
 8000ffe:	4219      	tst	r1, r3
 8001000:	bf14      	ite	ne
 8001002:	2001      	movne	r0, #1
 8001004:	2000      	moveq	r0, #0
 8001006:	4770      	bx	lr

08001008 <HAL_GPIO_WritePin>:
 8001008:	b10a      	cbz	r2, 800100e <HAL_GPIO_WritePin+0x6>
 800100a:	6181      	str	r1, [r0, #24]
 800100c:	4770      	bx	lr
 800100e:	6281      	str	r1, [r0, #40]	@ 0x28
 8001010:	4770      	bx	lr
 8001012:	bf00      	nop

08001014 <HAL_GPIO_TogglePin>:
 8001014:	6943      	ldr	r3, [r0, #20]
 8001016:	ea01 0203 	and.w	r2, r1, r3
 800101a:	ea21 0103 	bic.w	r1, r1, r3
 800101e:	ea41 4102 	orr.w	r1, r1, r2, lsl #16
 8001022:	6181      	str	r1, [r0, #24]
 8001024:	4770      	bx	lr
 8001026:	bf00      	nop

08001028 <HAL_GPIO_LockPin>:
 8001028:	b082      	sub	sp, #8
 800102a:	f44f 3380 	mov.w	r3, #65536	@ 0x10000
 800102e:	9301      	str	r3, [sp, #4]
 8001030:	9b01      	ldr	r3, [sp, #4]
 8001032:	430b      	orrs	r3, r1
 8001034:	9301      	str	r3, [sp, #4]
 8001036:	9b01      	ldr	r3, [sp, #4]
 8001038:	61c3      	str	r3, [r0, #28]
 800103a:	61c1      	str	r1, [r0, #28]
 800103c:	9b01      	ldr	r3, [sp, #4]
 800103e:	61c3      	str	r3, [r0, #28]
 8001040:	69c3      	ldr	r3, [r0, #28]
 8001042:	9301      	str	r3, [sp, #4]
 8001044:	69c0      	ldr	r0, [r0, #28]
 8001046:	f480 3080 	eor.w	r0, r0, #65536	@ 0x10000
 800104a:	f3c0 4000 	ubfx	r0, r0, #16, #1
 800104e:	b002      	add	sp, #8
 8001050:	4770      	bx	lr
 8001052:	bf00      	nop
 8001054:	4770      	bx	lr
 8001056:	bf00      	nop

08001058 <HAL_GPIO_EXTI_IRQHandler>:
 8001058:	4a04      	ldr	r2, [pc, #16]	@ (800106c <HAL_GPIO_EXTI_IRQHandler+0x14>)
 800105a:	6951      	ldr	r1, [r2, #20]
 800105c:	4201      	tst	r1, r0
 800105e:	d100      	bne.n	8001062 <HAL_GPIO_EXTI_IRQHandler+0xa>
 8001060:	4770      	bx	lr
 8001062:	b508      	push	{r3, lr}
 8001064:	6150      	str	r0, [r2, #20]
 8001066:	f7ff fad1 	bl	800060c <HAL_GPIO_EXTI_Callback>
 800106a:	bd08      	pop	{r3, pc}
 800106c:	40010400 	.word	0x40010400

08001070 <HAL_RCC_DeInit>:
 8001070:	b570      	push	{r4, r5, r6, lr}
 8001072:	4c33      	ldr	r4, [pc, #204]	@ (8001140 <HAL_RCC_DeInit+0xd0>)
 8001074:	6823      	ldr	r3, [r4, #0]
 8001076:	f043 0301 	orr.w	r3, r3, #1
 800107a:	6023      	str	r3, [r4, #0]
 800107c:	f7ff fbe2 	bl	8000844 <HAL_GetTick>
 8001080:	4605      	mov	r5, r0
 8001082:	e004      	b.n	800108e <HAL_RCC_DeInit+0x1e>
 8001084:	f7ff fbde 	bl	8000844 <HAL_GetTick>
 8001088:	1b40      	subs	r0, r0, r5
 800108a:	2802      	cmp	r0, #2
 800108c:	d828      	bhi.n	80010e0 <HAL_RCC_DeInit+0x70>
 800108e:	6823      	ldr	r3, [r4, #0]
 8001090:	079b      	lsls	r3, r3, #30
 8001092:	d5f7      	bpl.n	8001084 <HAL_RCC_DeInit+0x14>
 8001094:	6823      	ldr	r3, [r4, #0]
 8001096:	4a2b      	ldr	r2, [pc, #172]	@ (8001144 <HAL_RCC_DeInit+0xd4>)
 8001098:	4d29      	ldr	r5, [pc, #164]	@ (8001140 <HAL_RCC_DeInit+0xd0>)
 800109a:	f023 03f8 	bic.w	r3, r3, #248	@ 0xf8
 800109e:	f043 0380 	orr.w	r3, r3, #128	@ 0x80
 80010a2:	6023      	str	r3, [r4, #0]
 80010a4:	6863      	ldr	r3, [r4, #4]
 80010a6:	401a      	ands	r2, r3
 80010a8:	6062      	str	r2, [r4, #4]
 80010aa:	f7ff fbcb 	bl	8000844 <HAL_GetTick>
 80010ae:	f241 3688 	movw	r6, #5000	@ 0x1388
 80010b2:	4604      	mov	r4, r0
 80010b4:	e004      	b.n	80010c0 <HAL_RCC_DeInit+0x50>
 80010b6:	f7ff fbc5 	bl	8000844 <HAL_GetTick>
 80010ba:	1b00      	subs	r0, r0, r4
 80010bc:	42b0      	cmp	r0, r6
 80010be:	d80f      	bhi.n	80010e0 <HAL_RCC_DeInit+0x70>
 80010c0:	686b      	ldr	r3, [r5, #4]
 80010c2:	f013 0f0c 	tst.w	r3, #12
 80010c6:	d1f6      	bne.n	80010b6 <HAL_RCC_DeInit+0x46>
 80010c8:	491f      	ldr	r1, [pc, #124]	@ (8001148 <HAL_RCC_DeInit+0xd8>)
 80010ca:	4b20      	ldr	r3, [pc, #128]	@ (800114c <HAL_RCC_DeInit+0xdc>)
 80010cc:	4a20      	ldr	r2, [pc, #128]	@ (8001150 <HAL_RCC_DeInit+0xe0>)
 80010ce:	6808      	ldr	r0, [r1, #0]
 80010d0:	601a      	str	r2, [r3, #0]
 80010d2:	f7ff fb77 	bl	80007c4 <HAL_InitTick>
 80010d6:	4604      	mov	r4, r0
 80010d8:	b128      	cbz	r0, 80010e6 <HAL_RCC_DeInit+0x76>
 80010da:	2401      	movs	r4, #1
 80010dc:	4620      	mov	r0, r4
 80010de:	bd70      	pop	{r4, r5, r6, pc}
 80010e0:	2403      	movs	r4, #3
 80010e2:	4620      	mov	r0, r4
 80010e4:	bd70      	pop	{r4, r5, r6, pc}
 80010e6:	682b      	ldr	r3, [r5, #0]
 80010e8:	4e15      	ldr	r6, [pc, #84]	@ (8001140 <HAL_RCC_DeInit+0xd0>)
 80010ea:	f023 7384 	bic.w	r3, r3, #17301504	@ 0x1080000
 80010ee:	f423 3380 	bic.w	r3, r3, #65536	@ 0x10000
 80010f2:	602b      	str	r3, [r5, #0]
 80010f4:	682b      	ldr	r3, [r5, #0]
 80010f6:	f423 2380 	bic.w	r3, r3, #262144	@ 0x40000
 80010fa:	602b      	str	r3, [r5, #0]
 80010fc:	f7ff fba2 	bl	8000844 <HAL_GetTick>
 8001100:	4605      	mov	r5, r0
 8001102:	e004      	b.n	800110e <HAL_RCC_DeInit+0x9e>
 8001104:	f7ff fb9e 	bl	8000844 <HAL_GetTick>
 8001108:	1b43      	subs	r3, r0, r5
 800110a:	2b02      	cmp	r3, #2
 800110c:	d8e8      	bhi.n	80010e0 <HAL_RCC_DeInit+0x70>
 800110e:	6833      	ldr	r3, [r6, #0]
 8001110:	f013 7300 	ands.w	r3, r3, #33554432	@ 0x2000000
 8001114:	d1f6      	bne.n	8001104 <HAL_RCC_DeInit+0x94>
 8001116:	6073      	str	r3, [r6, #4]
 8001118:	62f3      	str	r3, [r6, #44]	@ 0x2c
 800111a:	6333      	str	r3, [r6, #48]	@ 0x30
 800111c:	68b1      	ldr	r1, [r6, #8]
 800111e:	f441 011f 	orr.w	r1, r1, #10420224	@ 0x9f0000
 8001122:	60b1      	str	r1, [r6, #8]
 8001124:	f04f 7280 	mov.w	r2, #16777216	@ 0x1000000
 8001128:	60b3      	str	r3, [r6, #8]
 800112a:	fa92 f2a2 	rbit	r2, r2
 800112e:	4b09      	ldr	r3, [pc, #36]	@ (8001154 <HAL_RCC_DeInit+0xe4>)
 8001130:	fab2 f282 	clz	r2, r2
 8001134:	4413      	add	r3, r2
 8001136:	009b      	lsls	r3, r3, #2
 8001138:	2201      	movs	r2, #1
 800113a:	601a      	str	r2, [r3, #0]
 800113c:	e7d1      	b.n	80010e2 <HAL_RCC_DeInit+0x72>
 800113e:	bf00      	nop
 8001140:	40021000 	.word	0x40021000
 8001144:	f8ffc00c 	.word	0xf8ffc00c
 8001148:	2000000c 	.word	0x2000000c
 800114c:	20000004 	.word	0x20000004
 8001150:	007a1200 	.word	0x007a1200
 8001154:	10908120 	.word	0x10908120

08001158 <HAL_RCC_OscConfig>:
 8001158:	2800      	cmp	r0, #0
 800115a:	f000 82c1 	beq.w	80016e0 <HAL_RCC_OscConfig+0x588>
 800115e:	e92d 43f0 	stmdb	sp!, {r4, r5, r6, r7, r8, r9, lr}
 8001162:	6803      	ldr	r3, [r0, #0]
 8001164:	07df      	lsls	r7, r3, #31
 8001166:	b083      	sub	sp, #12
 8001168:	4604      	mov	r4, r0
 800116a:	d53b      	bpl.n	80011e4 <HAL_RCC_OscConfig+0x8c>
 800116c:	49b7      	ldr	r1, [pc, #732]	@ (800144c <HAL_RCC_OscConfig+0x2f4>)
 800116e:	684a      	ldr	r2, [r1, #4]
 8001170:	f002 020c 	and.w	r2, r2, #12
 8001174:	2a04      	cmp	r2, #4
 8001176:	f000 814d 	beq.w	8001414 <HAL_RCC_OscConfig+0x2bc>
 800117a:	684a      	ldr	r2, [r1, #4]
 800117c:	f002 020c 	and.w	r2, r2, #12
 8001180:	2a08      	cmp	r2, #8
 8001182:	f000 8140 	beq.w	8001406 <HAL_RCC_OscConfig+0x2ae>
 8001186:	6863      	ldr	r3, [r4, #4]
 8001188:	f5b3 3f80 	cmp.w	r3, #65536	@ 0x10000
 800118c:	f000 8157 	beq.w	800143e <HAL_RCC_OscConfig+0x2e6>
 8001190:	2b00      	cmp	r3, #0
 8001192:	f000 8186 	beq.w	80014a2 <HAL_RCC_OscConfig+0x34a>
 8001196:	f5b3 2fa0 	cmp.w	r3, #327680	@ 0x50000
 800119a:	f000 8294 	beq.w	80016c6 <HAL_RCC_OscConfig+0x56e>
 800119e:	4bab      	ldr	r3, [pc, #684]	@ (800144c <HAL_RCC_OscConfig+0x2f4>)
 80011a0:	681a      	ldr	r2, [r3, #0]
 80011a2:	f422 3280 	bic.w	r2, r2, #65536	@ 0x10000
 80011a6:	601a      	str	r2, [r3, #0]
 80011a8:	681a      	ldr	r2, [r3, #0]
 80011aa:	f422 2280 	bic.w	r2, r2, #262144	@ 0x40000
 80011ae:	601a      	str	r2, [r3, #0]
 80011b0:	f7ff fb48 	bl	8000844 <HAL_GetTick>
 80011b4:	4fa5      	ldr	r7, [pc, #660]	@ (800144c <HAL_RCC_OscConfig+0x2f4>)
 80011b6:	4605      	mov	r5, r0
 80011b8:	f44f 3800 	mov.w	r8, #131072	@ 0x20000
 80011bc:	2601      	movs	r6, #1
 80011be:	e005      	b.n	80011cc <HAL_RCC_OscConfig+0x74>
 80011c0:	f7ff fb40 	bl	8000844 <HAL_GetTick>
 80011c4:	1b40      	subs	r0, r0, r5
 80011c6:	2864      	cmp	r0, #100	@ 0x64
 80011c8:	f200 8167 	bhi.w	800149a <HAL_RCC_OscConfig+0x342>
 80011cc:	fa98 f3a8 	rbit	r3, r8
 80011d0:	683a      	ldr	r2, [r7, #0]
 80011d2:	fa98 f3a8 	rbit	r3, r8
 80011d6:	fab3 f383 	clz	r3, r3
 80011da:	fa06 f303 	lsl.w	r3, r6, r3
 80011de:	4213      	tst	r3, r2
 80011e0:	d0ee      	beq.n	80011c0 <HAL_RCC_OscConfig+0x68>
 80011e2:	6823      	ldr	r3, [r4, #0]
 80011e4:	079e      	lsls	r6, r3, #30
 80011e6:	d53f      	bpl.n	8001268 <HAL_RCC_OscConfig+0x110>
 80011e8:	4a98      	ldr	r2, [pc, #608]	@ (800144c <HAL_RCC_OscConfig+0x2f4>)
 80011ea:	6851      	ldr	r1, [r2, #4]
 80011ec:	f011 0f0c 	tst.w	r1, #12
 80011f0:	f000 80ce 	beq.w	8001390 <HAL_RCC_OscConfig+0x238>
 80011f4:	6851      	ldr	r1, [r2, #4]
 80011f6:	f001 010c 	and.w	r1, r1, #12
 80011fa:	2908      	cmp	r1, #8
 80011fc:	f000 80c1 	beq.w	8001382 <HAL_RCC_OscConfig+0x22a>
 8001200:	68e2      	ldr	r2, [r4, #12]
 8001202:	2a00      	cmp	r2, #0
 8001204:	f000 819c 	beq.w	8001540 <HAL_RCC_OscConfig+0x3e8>
 8001208:	2501      	movs	r5, #1
 800120a:	fa95 f3a5 	rbit	r3, r5
 800120e:	fab3 f383 	clz	r3, r3
 8001212:	f103 5384 	add.w	r3, r3, #276824064	@ 0x10800000
 8001216:	f503 1384 	add.w	r3, r3, #1081344	@ 0x108000
 800121a:	009b      	lsls	r3, r3, #2
 800121c:	4f8b      	ldr	r7, [pc, #556]	@ (800144c <HAL_RCC_OscConfig+0x2f4>)
 800121e:	601d      	str	r5, [r3, #0]
 8001220:	f7ff fb10 	bl	8000844 <HAL_GetTick>
 8001224:	f04f 0802 	mov.w	r8, #2
 8001228:	4606      	mov	r6, r0
 800122a:	e005      	b.n	8001238 <HAL_RCC_OscConfig+0xe0>
 800122c:	f7ff fb0a 	bl	8000844 <HAL_GetTick>
 8001230:	1b80      	subs	r0, r0, r6
 8001232:	2802      	cmp	r0, #2
 8001234:	f200 8131 	bhi.w	800149a <HAL_RCC_OscConfig+0x342>
 8001238:	fa98 f3a8 	rbit	r3, r8
 800123c:	683a      	ldr	r2, [r7, #0]
 800123e:	fa98 f3a8 	rbit	r3, r8
 8001242:	fab3 f383 	clz	r3, r3
 8001246:	fa05 f303 	lsl.w	r3, r5, r3
 800124a:	4213      	tst	r3, r2
 800124c:	d0ee      	beq.n	800122c <HAL_RCC_OscConfig+0xd4>
 800124e:	6839      	ldr	r1, [r7, #0]
 8001250:	22f8      	movs	r2, #248	@ 0xf8
 8001252:	fa92 f2a2 	rbit	r2, r2
 8001256:	6923      	ldr	r3, [r4, #16]
 8001258:	fab2 f282 	clz	r2, r2
 800125c:	4093      	lsls	r3, r2
 800125e:	f021 02f8 	bic.w	r2, r1, #248	@ 0xf8
 8001262:	4313      	orrs	r3, r2
 8001264:	603b      	str	r3, [r7, #0]
 8001266:	6823      	ldr	r3, [r4, #0]
 8001268:	071d      	lsls	r5, r3, #28
 800126a:	d429      	bmi.n	80012c0 <HAL_RCC_OscConfig+0x168>
 800126c:	0758      	lsls	r0, r3, #29
 800126e:	d553      	bpl.n	8001318 <HAL_RCC_OscConfig+0x1c0>
 8001270:	4b76      	ldr	r3, [pc, #472]	@ (800144c <HAL_RCC_OscConfig+0x2f4>)
 8001272:	69da      	ldr	r2, [r3, #28]
 8001274:	00d1      	lsls	r1, r2, #3
 8001276:	f100 80c4 	bmi.w	8001402 <HAL_RCC_OscConfig+0x2aa>
 800127a:	69da      	ldr	r2, [r3, #28]
 800127c:	f042 5280 	orr.w	r2, r2, #268435456	@ 0x10000000
 8001280:	61da      	str	r2, [r3, #28]
 8001282:	69db      	ldr	r3, [r3, #28]
 8001284:	f003 5380 	and.w	r3, r3, #268435456	@ 0x10000000
 8001288:	9301      	str	r3, [sp, #4]
 800128a:	9b01      	ldr	r3, [sp, #4]
 800128c:	2501      	movs	r5, #1
 800128e:	4e70      	ldr	r6, [pc, #448]	@ (8001450 <HAL_RCC_OscConfig+0x2f8>)
 8001290:	6833      	ldr	r3, [r6, #0]
 8001292:	05da      	lsls	r2, r3, #23
 8001294:	f140 80f1 	bpl.w	800147a <HAL_RCC_OscConfig+0x322>
 8001298:	68a3      	ldr	r3, [r4, #8]
 800129a:	2b01      	cmp	r3, #1
 800129c:	f000 8174 	beq.w	8001588 <HAL_RCC_OscConfig+0x430>
 80012a0:	2b00      	cmp	r3, #0
 80012a2:	f000 811f 	beq.w	80014e4 <HAL_RCC_OscConfig+0x38c>
 80012a6:	2b05      	cmp	r3, #5
 80012a8:	4b68      	ldr	r3, [pc, #416]	@ (800144c <HAL_RCC_OscConfig+0x2f4>)
 80012aa:	6a1a      	ldr	r2, [r3, #32]
 80012ac:	f000 81ac 	beq.w	8001608 <HAL_RCC_OscConfig+0x4b0>
 80012b0:	f022 0201 	bic.w	r2, r2, #1
 80012b4:	621a      	str	r2, [r3, #32]
 80012b6:	6a1a      	ldr	r2, [r3, #32]
 80012b8:	f022 0204 	bic.w	r2, r2, #4
 80012bc:	621a      	str	r2, [r3, #32]
 80012be:	e168      	b.n	8001592 <HAL_RCC_OscConfig+0x43a>
 80012c0:	6962      	ldr	r2, [r4, #20]
 80012c2:	2a00      	cmp	r2, #0
 80012c4:	d077      	beq.n	80013b6 <HAL_RCC_OscConfig+0x25e>
 80012c6:	2601      	movs	r6, #1
 80012c8:	fa96 f2a6 	rbit	r2, r6
 80012cc:	4b61      	ldr	r3, [pc, #388]	@ (8001454 <HAL_RCC_OscConfig+0x2fc>)
 80012ce:	f8df 817c 	ldr.w	r8, [pc, #380]	@ 800144c <HAL_RCC_OscConfig+0x2f4>
 80012d2:	fab2 f282 	clz	r2, r2
 80012d6:	4413      	add	r3, r2
 80012d8:	009b      	lsls	r3, r3, #2
 80012da:	2502      	movs	r5, #2
 80012dc:	601e      	str	r6, [r3, #0]
 80012de:	f7ff fab1 	bl	8000844 <HAL_GetTick>
 80012e2:	4607      	mov	r7, r0
 80012e4:	e005      	b.n	80012f2 <HAL_RCC_OscConfig+0x19a>
 80012e6:	f7ff faad 	bl	8000844 <HAL_GetTick>
 80012ea:	1bc0      	subs	r0, r0, r7
 80012ec:	2802      	cmp	r0, #2
 80012ee:	f200 80d4 	bhi.w	800149a <HAL_RCC_OscConfig+0x342>
 80012f2:	fa95 f3a5 	rbit	r3, r5
 80012f6:	fa95 f3a5 	rbit	r3, r5
 80012fa:	fa95 f3a5 	rbit	r3, r5
 80012fe:	f8d8 2024 	ldr.w	r2, [r8, #36]	@ 0x24
 8001302:	fa95 f3a5 	rbit	r3, r5
 8001306:	fab3 f383 	clz	r3, r3
 800130a:	fa06 f303 	lsl.w	r3, r6, r3
 800130e:	4213      	tst	r3, r2
 8001310:	d0e9      	beq.n	80012e6 <HAL_RCC_OscConfig+0x18e>
 8001312:	6823      	ldr	r3, [r4, #0]
 8001314:	0758      	lsls	r0, r3, #29
 8001316:	d4ab      	bmi.n	8001270 <HAL_RCC_OscConfig+0x118>
 8001318:	69a3      	ldr	r3, [r4, #24]
 800131a:	b373      	cbz	r3, 800137a <HAL_RCC_OscConfig+0x222>
 800131c:	4d4b      	ldr	r5, [pc, #300]	@ (800144c <HAL_RCC_OscConfig+0x2f4>)
 800131e:	686a      	ldr	r2, [r5, #4]
 8001320:	f002 020c 	and.w	r2, r2, #12
 8001324:	2a08      	cmp	r2, #8
 8001326:	f000 8157 	beq.w	80015d8 <HAL_RCC_OscConfig+0x480>
 800132a:	2b02      	cmp	r3, #2
 800132c:	f04f 7380 	mov.w	r3, #16777216	@ 0x1000000
 8001330:	f000 8172 	beq.w	8001618 <HAL_RCC_OscConfig+0x4c0>
 8001334:	fa93 f3a3 	rbit	r3, r3
 8001338:	fab3 f383 	clz	r3, r3
 800133c:	f103 5384 	add.w	r3, r3, #276824064	@ 0x10800000
 8001340:	f503 1384 	add.w	r3, r3, #1081344	@ 0x108000
 8001344:	009b      	lsls	r3, r3, #2
 8001346:	2200      	movs	r2, #0
 8001348:	601a      	str	r2, [r3, #0]
 800134a:	f7ff fa7b 	bl	8000844 <HAL_GetTick>
 800134e:	f04f 7700 	mov.w	r7, #33554432	@ 0x2000000
 8001352:	4604      	mov	r4, r0
 8001354:	2601      	movs	r6, #1
 8001356:	e005      	b.n	8001364 <HAL_RCC_OscConfig+0x20c>
 8001358:	f7ff fa74 	bl	8000844 <HAL_GetTick>
 800135c:	1b00      	subs	r0, r0, r4
 800135e:	2802      	cmp	r0, #2
 8001360:	f200 809b 	bhi.w	800149a <HAL_RCC_OscConfig+0x342>
 8001364:	fa97 f3a7 	rbit	r3, r7
 8001368:	682a      	ldr	r2, [r5, #0]
 800136a:	fa97 f3a7 	rbit	r3, r7
 800136e:	fab3 f383 	clz	r3, r3
 8001372:	fa06 f303 	lsl.w	r3, r6, r3
 8001376:	4213      	tst	r3, r2
 8001378:	d1ee      	bne.n	8001358 <HAL_RCC_OscConfig+0x200>
 800137a:	2000      	movs	r0, #0
 800137c:	b003      	add	sp, #12
 800137e:	e8bd 83f0 	ldmia.w	sp!, {r4, r5, r6, r7, r8, r9, pc}
 8001382:	6852      	ldr	r2, [r2, #4]
 8001384:	f402 32c0 	and.w	r2, r2, #98304	@ 0x18000
 8001388:	f5b2 4f00 	cmp.w	r2, #32768	@ 0x8000
 800138c:	f47f af38 	bne.w	8001200 <HAL_RCC_OscConfig+0xa8>
 8001390:	2202      	movs	r2, #2
 8001392:	fa92 f1a2 	rbit	r1, r2
 8001396:	492d      	ldr	r1, [pc, #180]	@ (800144c <HAL_RCC_OscConfig+0x2f4>)
 8001398:	6808      	ldr	r0, [r1, #0]
 800139a:	fa92 f2a2 	rbit	r2, r2
 800139e:	2101      	movs	r1, #1
 80013a0:	fab2 f282 	clz	r2, r2
 80013a4:	fa01 f202 	lsl.w	r2, r1, r2
 80013a8:	4202      	tst	r2, r0
 80013aa:	d055      	beq.n	8001458 <HAL_RCC_OscConfig+0x300>
 80013ac:	68e2      	ldr	r2, [r4, #12]
 80013ae:	428a      	cmp	r2, r1
 80013b0:	d052      	beq.n	8001458 <HAL_RCC_OscConfig+0x300>
 80013b2:	2001      	movs	r0, #1
 80013b4:	e7e2      	b.n	800137c <HAL_RCC_OscConfig+0x224>
 80013b6:	2701      	movs	r7, #1
 80013b8:	fa97 f1a7 	rbit	r1, r7
 80013bc:	4b25      	ldr	r3, [pc, #148]	@ (8001454 <HAL_RCC_OscConfig+0x2fc>)
 80013be:	f8df 808c 	ldr.w	r8, [pc, #140]	@ 800144c <HAL_RCC_OscConfig+0x2f4>
 80013c2:	fab1 f181 	clz	r1, r1
 80013c6:	440b      	add	r3, r1
 80013c8:	009b      	lsls	r3, r3, #2
 80013ca:	2502      	movs	r5, #2
 80013cc:	601a      	str	r2, [r3, #0]
 80013ce:	f7ff fa39 	bl	8000844 <HAL_GetTick>
 80013d2:	4606      	mov	r6, r0
 80013d4:	e004      	b.n	80013e0 <HAL_RCC_OscConfig+0x288>
 80013d6:	f7ff fa35 	bl	8000844 <HAL_GetTick>
 80013da:	1b80      	subs	r0, r0, r6
 80013dc:	2802      	cmp	r0, #2
 80013de:	d85c      	bhi.n	800149a <HAL_RCC_OscConfig+0x342>
 80013e0:	fa95 f3a5 	rbit	r3, r5
 80013e4:	fa95 f3a5 	rbit	r3, r5
 80013e8:	fa95 f3a5 	rbit	r3, r5
 80013ec:	f8d8 2024 	ldr.w	r2, [r8, #36]	@ 0x24
 80013f0:	fa95 f3a5 	rbit	r3, r5
 80013f4:	fab3 f383 	clz	r3, r3
 80013f8:	fa07 f303 	lsl.w	r3, r7, r3
 80013fc:	4213      	tst	r3, r2
 80013fe:	d1ea      	bne.n	80013d6 <HAL_RCC_OscConfig+0x27e>
 8001400:	e787      	b.n	8001312 <HAL_RCC_OscConfig+0x1ba>
 8001402:	2500      	movs	r5, #0
 8001404:	e743      	b.n	800128e <HAL_RCC_OscConfig+0x136>
 8001406:	684a      	ldr	r2, [r1, #4]
 8001408:	f402 32c0 	and.w	r2, r2, #98304	@ 0x18000
 800140c:	f5b2 3f80 	cmp.w	r2, #65536	@ 0x10000
 8001410:	f47f aeb9 	bne.w	8001186 <HAL_RCC_OscConfig+0x2e>
 8001414:	f44f 3200 	mov.w	r2, #131072	@ 0x20000
 8001418:	fa92 f1a2 	rbit	r1, r2
 800141c:	490b      	ldr	r1, [pc, #44]	@ (800144c <HAL_RCC_OscConfig+0x2f4>)
 800141e:	6808      	ldr	r0, [r1, #0]
 8001420:	fa92 f2a2 	rbit	r2, r2
 8001424:	2101      	movs	r1, #1
 8001426:	fab2 f282 	clz	r2, r2
 800142a:	fa01 f202 	lsl.w	r2, r1, r2
 800142e:	4202      	tst	r2, r0
 8001430:	f43f aed8 	beq.w	80011e4 <HAL_RCC_OscConfig+0x8c>
 8001434:	6862      	ldr	r2, [r4, #4]
 8001436:	2a00      	cmp	r2, #0
 8001438:	f47f aed4 	bne.w	80011e4 <HAL_RCC_OscConfig+0x8c>
 800143c:	e7b9      	b.n	80013b2 <HAL_RCC_OscConfig+0x25a>
 800143e:	4a03      	ldr	r2, [pc, #12]	@ (800144c <HAL_RCC_OscConfig+0x2f4>)
 8001440:	6813      	ldr	r3, [r2, #0]
 8001442:	f443 3380 	orr.w	r3, r3, #65536	@ 0x10000
 8001446:	6013      	str	r3, [r2, #0]
 8001448:	e6b2      	b.n	80011b0 <HAL_RCC_OscConfig+0x58>
 800144a:	bf00      	nop
 800144c:	40021000 	.word	0x40021000
 8001450:	40007000 	.word	0x40007000
 8001454:	10908120 	.word	0x10908120
 8001458:	4da2      	ldr	r5, [pc, #648]	@ (80016e4 <HAL_RCC_OscConfig+0x58c>)
 800145a:	21f8      	movs	r1, #248	@ 0xf8
 800145c:	6828      	ldr	r0, [r5, #0]
 800145e:	fa91 f1a1 	rbit	r1, r1
 8001462:	6922      	ldr	r2, [r4, #16]
 8001464:	fab1 f181 	clz	r1, r1
 8001468:	f020 00f8 	bic.w	r0, r0, #248	@ 0xf8
 800146c:	408a      	lsls	r2, r1
 800146e:	4302      	orrs	r2, r0
 8001470:	602a      	str	r2, [r5, #0]
 8001472:	071d      	lsls	r5, r3, #28
 8001474:	f57f aefa 	bpl.w	800126c <HAL_RCC_OscConfig+0x114>
 8001478:	e722      	b.n	80012c0 <HAL_RCC_OscConfig+0x168>
 800147a:	6833      	ldr	r3, [r6, #0]
 800147c:	f443 7380 	orr.w	r3, r3, #256	@ 0x100
 8001480:	6033      	str	r3, [r6, #0]
 8001482:	f7ff f9df 	bl	8000844 <HAL_GetTick>
 8001486:	4607      	mov	r7, r0
 8001488:	6833      	ldr	r3, [r6, #0]
 800148a:	05db      	lsls	r3, r3, #23
 800148c:	f53f af04 	bmi.w	8001298 <HAL_RCC_OscConfig+0x140>
 8001490:	f7ff f9d8 	bl	8000844 <HAL_GetTick>
 8001494:	1bc0      	subs	r0, r0, r7
 8001496:	2864      	cmp	r0, #100	@ 0x64
 8001498:	d9f6      	bls.n	8001488 <HAL_RCC_OscConfig+0x330>
 800149a:	2003      	movs	r0, #3
 800149c:	b003      	add	sp, #12
 800149e:	e8bd 83f0 	ldmia.w	sp!, {r4, r5, r6, r7, r8, r9, pc}
 80014a2:	4d90      	ldr	r5, [pc, #576]	@ (80016e4 <HAL_RCC_OscConfig+0x58c>)
 80014a4:	682b      	ldr	r3, [r5, #0]
 80014a6:	f423 3380 	bic.w	r3, r3, #65536	@ 0x10000
 80014aa:	602b      	str	r3, [r5, #0]
 80014ac:	682b      	ldr	r3, [r5, #0]
 80014ae:	f423 2380 	bic.w	r3, r3, #262144	@ 0x40000
 80014b2:	602b      	str	r3, [r5, #0]
 80014b4:	f7ff f9c6 	bl	8000844 <HAL_GetTick>
 80014b8:	f44f 3800 	mov.w	r8, #131072	@ 0x20000
 80014bc:	2701      	movs	r7, #1
 80014be:	4606      	mov	r6, r0
 80014c0:	e004      	b.n	80014cc <HAL_RCC_OscConfig+0x374>
 80014c2:	f7ff f9bf 	bl	8000844 <HAL_GetTick>
 80014c6:	1b80      	subs	r0, r0, r6
 80014c8:	2864      	cmp	r0, #100	@ 0x64
 80014ca:	d8e6      	bhi.n	800149a <HAL_RCC_OscConfig+0x342>
 80014cc:	fa98 f3a8 	rbit	r3, r8
 80014d0:	682a      	ldr	r2, [r5, #0]
 80014d2:	fa98 f3a8 	rbit	r3, r8
 80014d6:	fab3 f383 	clz	r3, r3
 80014da:	fa07 f303 	lsl.w	r3, r7, r3
 80014de:	4213      	tst	r3, r2
 80014e0:	d1ef      	bne.n	80014c2 <HAL_RCC_OscConfig+0x36a>
 80014e2:	e67e      	b.n	80011e2 <HAL_RCC_OscConfig+0x8a>
 80014e4:	4e7f      	ldr	r6, [pc, #508]	@ (80016e4 <HAL_RCC_OscConfig+0x58c>)
 80014e6:	6a33      	ldr	r3, [r6, #32]
 80014e8:	f023 0301 	bic.w	r3, r3, #1
 80014ec:	6233      	str	r3, [r6, #32]
 80014ee:	6a33      	ldr	r3, [r6, #32]
 80014f0:	f023 0304 	bic.w	r3, r3, #4
 80014f4:	6233      	str	r3, [r6, #32]
 80014f6:	f7ff f9a5 	bl	8000844 <HAL_GetTick>
 80014fa:	f04f 0902 	mov.w	r9, #2
 80014fe:	4607      	mov	r7, r0
 8001500:	f04f 0801 	mov.w	r8, #1
 8001504:	e006      	b.n	8001514 <HAL_RCC_OscConfig+0x3bc>
 8001506:	f7ff f99d 	bl	8000844 <HAL_GetTick>
 800150a:	f241 3388 	movw	r3, #5000	@ 0x1388
 800150e:	1bc0      	subs	r0, r0, r7
 8001510:	4298      	cmp	r0, r3
 8001512:	d8c2      	bhi.n	800149a <HAL_RCC_OscConfig+0x342>
 8001514:	fa99 f3a9 	rbit	r3, r9
 8001518:	fa99 f3a9 	rbit	r3, r9
 800151c:	6a32      	ldr	r2, [r6, #32]
 800151e:	fa99 f3a9 	rbit	r3, r9
 8001522:	fab3 f383 	clz	r3, r3
 8001526:	fa08 f303 	lsl.w	r3, r8, r3
 800152a:	4213      	tst	r3, r2
 800152c:	d1eb      	bne.n	8001506 <HAL_RCC_OscConfig+0x3ae>
 800152e:	2d00      	cmp	r5, #0
 8001530:	f43f aef2 	beq.w	8001318 <HAL_RCC_OscConfig+0x1c0>
 8001534:	4a6b      	ldr	r2, [pc, #428]	@ (80016e4 <HAL_RCC_OscConfig+0x58c>)
 8001536:	69d3      	ldr	r3, [r2, #28]
 8001538:	f023 5380 	bic.w	r3, r3, #268435456	@ 0x10000000
 800153c:	61d3      	str	r3, [r2, #28]
 800153e:	e6eb      	b.n	8001318 <HAL_RCC_OscConfig+0x1c0>
 8001540:	2601      	movs	r6, #1
 8001542:	fa96 f3a6 	rbit	r3, r6
 8001546:	fab3 f383 	clz	r3, r3
 800154a:	f103 5384 	add.w	r3, r3, #276824064	@ 0x10800000
 800154e:	f503 1384 	add.w	r3, r3, #1081344	@ 0x108000
 8001552:	009b      	lsls	r3, r3, #2
 8001554:	4f63      	ldr	r7, [pc, #396]	@ (80016e4 <HAL_RCC_OscConfig+0x58c>)
 8001556:	601a      	str	r2, [r3, #0]
 8001558:	f7ff f974 	bl	8000844 <HAL_GetTick>
 800155c:	f04f 0802 	mov.w	r8, #2
 8001560:	4605      	mov	r5, r0
 8001562:	e004      	b.n	800156e <HAL_RCC_OscConfig+0x416>
 8001564:	f7ff f96e 	bl	8000844 <HAL_GetTick>
 8001568:	1b40      	subs	r0, r0, r5
 800156a:	2802      	cmp	r0, #2
 800156c:	d895      	bhi.n	800149a <HAL_RCC_OscConfig+0x342>
 800156e:	fa98 f3a8 	rbit	r3, r8
 8001572:	683a      	ldr	r2, [r7, #0]
 8001574:	fa98 f3a8 	rbit	r3, r8
 8001578:	fab3 f383 	clz	r3, r3
 800157c:	fa06 f303 	lsl.w	r3, r6, r3
 8001580:	4213      	tst	r3, r2
 8001582:	d1ef      	bne.n	8001564 <HAL_RCC_OscConfig+0x40c>
 8001584:	6823      	ldr	r3, [r4, #0]
 8001586:	e66f      	b.n	8001268 <HAL_RCC_OscConfig+0x110>
 8001588:	4a56      	ldr	r2, [pc, #344]	@ (80016e4 <HAL_RCC_OscConfig+0x58c>)
 800158a:	6a13      	ldr	r3, [r2, #32]
 800158c:	f043 0301 	orr.w	r3, r3, #1
 8001590:	6213      	str	r3, [r2, #32]
 8001592:	f7ff f957 	bl	8000844 <HAL_GetTick>
 8001596:	f8df 814c 	ldr.w	r8, [pc, #332]	@ 80016e4 <HAL_RCC_OscConfig+0x58c>
 800159a:	4606      	mov	r6, r0
 800159c:	f04f 0902 	mov.w	r9, #2
 80015a0:	2701      	movs	r7, #1
 80015a2:	e007      	b.n	80015b4 <HAL_RCC_OscConfig+0x45c>
 80015a4:	f7ff f94e 	bl	8000844 <HAL_GetTick>
 80015a8:	f241 3388 	movw	r3, #5000	@ 0x1388
 80015ac:	1b80      	subs	r0, r0, r6
 80015ae:	4298      	cmp	r0, r3
 80015b0:	f63f af73 	bhi.w	800149a <HAL_RCC_OscConfig+0x342>
 80015b4:	fa99 f3a9 	rbit	r3, r9
 80015b8:	fa99 f3a9 	rbit	r3, r9
 80015bc:	f8d8 2020 	ldr.w	r2, [r8, #32]
 80015c0:	fa99 f3a9 	rbit	r3, r9
 80015c4:	fab3 f383 	clz	r3, r3
 80015c8:	fa07 f303 	lsl.w	r3, r7, r3
 80015cc:	4213      	tst	r3, r2
 80015ce:	d0e9      	beq.n	80015a4 <HAL_RCC_OscConfig+0x44c>
 80015d0:	2d00      	cmp	r5, #0
 80015d2:	f43f aea1 	beq.w	8001318 <HAL_RCC_OscConfig+0x1c0>
 80015d6:	e7ad      	b.n	8001534 <HAL_RCC_OscConfig+0x3dc>
 80015d8:	2b01      	cmp	r3, #1
 80015da:	f43f aeea 	beq.w	80013b2 <HAL_RCC_OscConfig+0x25a>
 80015de:	686a      	ldr	r2, [r5, #4]
 80015e0:	69e1      	ldr	r1, [r4, #28]
 80015e2:	6aeb      	ldr	r3, [r5, #44]	@ 0x2c
 80015e4:	f402 30c0 	and.w	r0, r2, #98304	@ 0x18000
 80015e8:	4288      	cmp	r0, r1
 80015ea:	f47f aee2 	bne.w	80013b2 <HAL_RCC_OscConfig+0x25a>
 80015ee:	6a21      	ldr	r1, [r4, #32]
 80015f0:	f402 1270 	and.w	r2, r2, #3932160	@ 0x3c0000
 80015f4:	428a      	cmp	r2, r1
 80015f6:	f47f aedc 	bne.w	80013b2 <HAL_RCC_OscConfig+0x25a>
 80015fa:	6a60      	ldr	r0, [r4, #36]	@ 0x24
 80015fc:	f003 030f 	and.w	r3, r3, #15
 8001600:	1a18      	subs	r0, r3, r0
 8001602:	bf18      	it	ne
 8001604:	2001      	movne	r0, #1
 8001606:	e6b9      	b.n	800137c <HAL_RCC_OscConfig+0x224>
 8001608:	f042 0204 	orr.w	r2, r2, #4
 800160c:	621a      	str	r2, [r3, #32]
 800160e:	6a1a      	ldr	r2, [r3, #32]
 8001610:	f042 0201 	orr.w	r2, r2, #1
 8001614:	621a      	str	r2, [r3, #32]
 8001616:	e7bc      	b.n	8001592 <HAL_RCC_OscConfig+0x43a>
 8001618:	fa93 f3a3 	rbit	r3, r3
 800161c:	fab3 f383 	clz	r3, r3
 8001620:	f103 5384 	add.w	r3, r3, #276824064	@ 0x10800000
 8001624:	f503 1384 	add.w	r3, r3, #1081344	@ 0x108000
 8001628:	009b      	lsls	r3, r3, #2
 800162a:	2200      	movs	r2, #0
 800162c:	601a      	str	r2, [r3, #0]
 800162e:	f7ff f909 	bl	8000844 <HAL_GetTick>
 8001632:	f04f 7800 	mov.w	r8, #33554432	@ 0x2000000
 8001636:	4606      	mov	r6, r0
 8001638:	2701      	movs	r7, #1
 800163a:	e005      	b.n	8001648 <HAL_RCC_OscConfig+0x4f0>
 800163c:	f7ff f902 	bl	8000844 <HAL_GetTick>
 8001640:	1b80      	subs	r0, r0, r6
 8001642:	2802      	cmp	r0, #2
 8001644:	f63f af29 	bhi.w	800149a <HAL_RCC_OscConfig+0x342>
 8001648:	fa98 f3a8 	rbit	r3, r8
 800164c:	682a      	ldr	r2, [r5, #0]
 800164e:	fa98 f3a8 	rbit	r3, r8
 8001652:	fab3 f383 	clz	r3, r3
 8001656:	fa07 f303 	lsl.w	r3, r7, r3
 800165a:	4213      	tst	r3, r2
 800165c:	d1ee      	bne.n	800163c <HAL_RCC_OscConfig+0x4e4>
 800165e:	6aeb      	ldr	r3, [r5, #44]	@ 0x2c
 8001660:	6a62      	ldr	r2, [r4, #36]	@ 0x24
 8001662:	f023 030f 	bic.w	r3, r3, #15
 8001666:	4313      	orrs	r3, r2
 8001668:	62eb      	str	r3, [r5, #44]	@ 0x2c
 800166a:	e9d4 1307 	ldrd	r1, r3, [r4, #28]
 800166e:	686a      	ldr	r2, [r5, #4]
 8001670:	430b      	orrs	r3, r1
 8001672:	f422 1276 	bic.w	r2, r2, #4030464	@ 0x3d8000
 8001676:	4313      	orrs	r3, r2
 8001678:	606b      	str	r3, [r5, #4]
 800167a:	f04f 7380 	mov.w	r3, #16777216	@ 0x1000000
 800167e:	fa93 f3a3 	rbit	r3, r3
 8001682:	fab3 f383 	clz	r3, r3
 8001686:	f103 5384 	add.w	r3, r3, #276824064	@ 0x10800000
 800168a:	f503 1384 	add.w	r3, r3, #1081344	@ 0x108000
 800168e:	009b      	lsls	r3, r3, #2
 8001690:	4d14      	ldr	r5, [pc, #80]	@ (80016e4 <HAL_RCC_OscConfig+0x58c>)
 8001692:	601f      	str	r7, [r3, #0]
 8001694:	f7ff f8d6 	bl	8000844 <HAL_GetTick>
 8001698:	f04f 7700 	mov.w	r7, #33554432	@ 0x2000000
 800169c:	4604      	mov	r4, r0
 800169e:	2601      	movs	r6, #1
 80016a0:	e005      	b.n	80016ae <HAL_RCC_OscConfig+0x556>
 80016a2:	f7ff f8cf 	bl	8000844 <HAL_GetTick>
 80016a6:	1b00      	subs	r0, r0, r4
 80016a8:	2802      	cmp	r0, #2
 80016aa:	f63f aef6 	bhi.w	800149a <HAL_RCC_OscConfig+0x342>
 80016ae:	fa97 f3a7 	rbit	r3, r7
 80016b2:	682a      	ldr	r2, [r5, #0]
 80016b4:	fa97 f3a7 	rbit	r3, r7
 80016b8:	fab3 f383 	clz	r3, r3
 80016bc:	fa06 f303 	lsl.w	r3, r6, r3
 80016c0:	4213      	tst	r3, r2
 80016c2:	d0ee      	beq.n	80016a2 <HAL_RCC_OscConfig+0x54a>
 80016c4:	e659      	b.n	800137a <HAL_RCC_OscConfig+0x222>
 80016c6:	f103 4380 	add.w	r3, r3, #1073741824	@ 0x40000000
 80016ca:	f5a3 333c 	sub.w	r3, r3, #192512	@ 0x2f000
 80016ce:	681a      	ldr	r2, [r3, #0]
 80016d0:	f442 2280 	orr.w	r2, r2, #262144	@ 0x40000
 80016d4:	601a      	str	r2, [r3, #0]
 80016d6:	681a      	ldr	r2, [r3, #0]
 80016d8:	f442 3280 	orr.w	r2, r2, #65536	@ 0x10000
 80016dc:	601a      	str	r2, [r3, #0]
 80016de:	e567      	b.n	80011b0 <HAL_RCC_OscConfig+0x58>
 80016e0:	2001      	movs	r0, #1
 80016e2:	4770      	bx	lr
 80016e4:	40021000 	.word	0x40021000

080016e8 <HAL_RCC_ClockConfig>:
 80016e8:	2800      	cmp	r0, #0
 80016ea:	f000 80a1 	beq.w	8001830 <HAL_RCC_ClockConfig+0x148>
 80016ee:	4a5a      	ldr	r2, [pc, #360]	@ (8001858 <HAL_RCC_ClockConfig+0x170>)
 80016f0:	6813      	ldr	r3, [r2, #0]
 80016f2:	f003 0307 	and.w	r3, r3, #7
 80016f6:	428b      	cmp	r3, r1
 80016f8:	e92d 41f0 	stmdb	sp!, {r4, r5, r6, r7, r8, lr}
 80016fc:	460d      	mov	r5, r1
 80016fe:	4604      	mov	r4, r0
 8001700:	d20c      	bcs.n	800171c <HAL_RCC_ClockConfig+0x34>
 8001702:	6813      	ldr	r3, [r2, #0]
 8001704:	f023 0307 	bic.w	r3, r3, #7
 8001708:	430b      	orrs	r3, r1
 800170a:	6013      	str	r3, [r2, #0]
 800170c:	6813      	ldr	r3, [r2, #0]
 800170e:	f003 0307 	and.w	r3, r3, #7
 8001712:	428b      	cmp	r3, r1
 8001714:	d002      	beq.n	800171c <HAL_RCC_ClockConfig+0x34>
 8001716:	2001      	movs	r0, #1
 8001718:	e8bd 81f0 	ldmia.w	sp!, {r4, r5, r6, r7, r8, pc}
 800171c:	6823      	ldr	r3, [r4, #0]
 800171e:	0798      	lsls	r0, r3, #30
 8001720:	d506      	bpl.n	8001730 <HAL_RCC_ClockConfig+0x48>
 8001722:	494e      	ldr	r1, [pc, #312]	@ (800185c <HAL_RCC_ClockConfig+0x174>)
 8001724:	68a0      	ldr	r0, [r4, #8]
 8001726:	684a      	ldr	r2, [r1, #4]
 8001728:	f022 02f0 	bic.w	r2, r2, #240	@ 0xf0
 800172c:	4302      	orrs	r2, r0
 800172e:	604a      	str	r2, [r1, #4]
 8001730:	07d9      	lsls	r1, r3, #31
 8001732:	d52c      	bpl.n	800178e <HAL_RCC_ClockConfig+0xa6>
 8001734:	6862      	ldr	r2, [r4, #4]
 8001736:	2a01      	cmp	r2, #1
 8001738:	d07c      	beq.n	8001834 <HAL_RCC_ClockConfig+0x14c>
 800173a:	2a02      	cmp	r2, #2
 800173c:	bf0c      	ite	eq
 800173e:	f04f 7300 	moveq.w	r3, #33554432	@ 0x2000000
 8001742:	2302      	movne	r3, #2
 8001744:	fa93 f1a3 	rbit	r1, r3
 8001748:	4944      	ldr	r1, [pc, #272]	@ (800185c <HAL_RCC_ClockConfig+0x174>)
 800174a:	6808      	ldr	r0, [r1, #0]
 800174c:	fa93 f3a3 	rbit	r3, r3
 8001750:	2101      	movs	r1, #1
 8001752:	fab3 f383 	clz	r3, r3
 8001756:	fa01 f303 	lsl.w	r3, r1, r3
 800175a:	4203      	tst	r3, r0
 800175c:	d0db      	beq.n	8001716 <HAL_RCC_ClockConfig+0x2e>
 800175e:	4e3f      	ldr	r6, [pc, #252]	@ (800185c <HAL_RCC_ClockConfig+0x174>)
 8001760:	6873      	ldr	r3, [r6, #4]
 8001762:	f023 0303 	bic.w	r3, r3, #3
 8001766:	4313      	orrs	r3, r2
 8001768:	6073      	str	r3, [r6, #4]
 800176a:	f7ff f86b 	bl	8000844 <HAL_GetTick>
 800176e:	f241 3888 	movw	r8, #5000	@ 0x1388
 8001772:	4607      	mov	r7, r0
 8001774:	e004      	b.n	8001780 <HAL_RCC_ClockConfig+0x98>
 8001776:	f7ff f865 	bl	8000844 <HAL_GetTick>
 800177a:	1bc0      	subs	r0, r0, r7
 800177c:	4540      	cmp	r0, r8
 800177e:	d868      	bhi.n	8001852 <HAL_RCC_ClockConfig+0x16a>
 8001780:	6873      	ldr	r3, [r6, #4]
 8001782:	6862      	ldr	r2, [r4, #4]
 8001784:	f003 030c 	and.w	r3, r3, #12
 8001788:	ebb3 0f82 	cmp.w	r3, r2, lsl #2
 800178c:	d1f3      	bne.n	8001776 <HAL_RCC_ClockConfig+0x8e>
 800178e:	4a32      	ldr	r2, [pc, #200]	@ (8001858 <HAL_RCC_ClockConfig+0x170>)
 8001790:	6813      	ldr	r3, [r2, #0]
 8001792:	f003 0307 	and.w	r3, r3, #7
 8001796:	42ab      	cmp	r3, r5
 8001798:	d909      	bls.n	80017ae <HAL_RCC_ClockConfig+0xc6>
 800179a:	6813      	ldr	r3, [r2, #0]
 800179c:	f023 0307 	bic.w	r3, r3, #7
 80017a0:	432b      	orrs	r3, r5
 80017a2:	6013      	str	r3, [r2, #0]
 80017a4:	6813      	ldr	r3, [r2, #0]
 80017a6:	f003 0307 	and.w	r3, r3, #7
 80017aa:	42ab      	cmp	r3, r5
 80017ac:	d1b3      	bne.n	8001716 <HAL_RCC_ClockConfig+0x2e>
 80017ae:	6823      	ldr	r3, [r4, #0]
 80017b0:	075a      	lsls	r2, r3, #29
 80017b2:	d506      	bpl.n	80017c2 <HAL_RCC_ClockConfig+0xda>
 80017b4:	4929      	ldr	r1, [pc, #164]	@ (800185c <HAL_RCC_ClockConfig+0x174>)
 80017b6:	68e0      	ldr	r0, [r4, #12]
 80017b8:	684a      	ldr	r2, [r1, #4]
 80017ba:	f422 62e0 	bic.w	r2, r2, #1792	@ 0x700
 80017be:	4302      	orrs	r2, r0
 80017c0:	604a      	str	r2, [r1, #4]
 80017c2:	071b      	lsls	r3, r3, #28
 80017c4:	d507      	bpl.n	80017d6 <HAL_RCC_ClockConfig+0xee>
 80017c6:	4a25      	ldr	r2, [pc, #148]	@ (800185c <HAL_RCC_ClockConfig+0x174>)
 80017c8:	6921      	ldr	r1, [r4, #16]
 80017ca:	6853      	ldr	r3, [r2, #4]
 80017cc:	f423 5360 	bic.w	r3, r3, #14336	@ 0x3800
 80017d0:	ea43 03c1 	orr.w	r3, r3, r1, lsl #3
 80017d4:	6053      	str	r3, [r2, #4]
 80017d6:	4a21      	ldr	r2, [pc, #132]	@ (800185c <HAL_RCC_ClockConfig+0x174>)
 80017d8:	6853      	ldr	r3, [r2, #4]
 80017da:	f003 010c 	and.w	r1, r3, #12
 80017de:	2908      	cmp	r1, #8
 80017e0:	d017      	beq.n	8001812 <HAL_RCC_ClockConfig+0x12a>
 80017e2:	491f      	ldr	r1, [pc, #124]	@ (8001860 <HAL_RCC_ClockConfig+0x178>)
 80017e4:	4b1d      	ldr	r3, [pc, #116]	@ (800185c <HAL_RCC_ClockConfig+0x174>)
 80017e6:	22f0      	movs	r2, #240	@ 0xf0
 80017e8:	685b      	ldr	r3, [r3, #4]
 80017ea:	fa92 f2a2 	rbit	r2, r2
 80017ee:	fab2 f282 	clz	r2, r2
 80017f2:	f003 03f0 	and.w	r3, r3, #240	@ 0xf0
 80017f6:	40d3      	lsrs	r3, r2
 80017f8:	4a1a      	ldr	r2, [pc, #104]	@ (8001864 <HAL_RCC_ClockConfig+0x17c>)
 80017fa:	481b      	ldr	r0, [pc, #108]	@ (8001868 <HAL_RCC_ClockConfig+0x180>)
 80017fc:	5cd3      	ldrb	r3, [r2, r3]
 80017fe:	4a1b      	ldr	r2, [pc, #108]	@ (800186c <HAL_RCC_ClockConfig+0x184>)
 8001800:	6800      	ldr	r0, [r0, #0]
 8001802:	fa21 f303 	lsr.w	r3, r1, r3
 8001806:	6013      	str	r3, [r2, #0]
 8001808:	f7fe ffdc 	bl	80007c4 <HAL_InitTick>
 800180c:	2000      	movs	r0, #0
 800180e:	e8bd 81f0 	ldmia.w	sp!, {r4, r5, r6, r7, r8, pc}
 8001812:	6ad1      	ldr	r1, [r2, #44]	@ 0x2c
 8001814:	4a16      	ldr	r2, [pc, #88]	@ (8001870 <HAL_RCC_ClockConfig+0x188>)
 8001816:	f3c3 4383 	ubfx	r3, r3, #18, #4
 800181a:	f001 010f 	and.w	r1, r1, #15
 800181e:	5cd3      	ldrb	r3, [r2, r3]
 8001820:	440a      	add	r2, r1
 8001822:	490f      	ldr	r1, [pc, #60]	@ (8001860 <HAL_RCC_ClockConfig+0x178>)
 8001824:	7c12      	ldrb	r2, [r2, #16]
 8001826:	fbb1 f2f2 	udiv	r2, r1, r2
 800182a:	fb02 f103 	mul.w	r1, r2, r3
 800182e:	e7d9      	b.n	80017e4 <HAL_RCC_ClockConfig+0xfc>
 8001830:	2001      	movs	r0, #1
 8001832:	4770      	bx	lr
 8001834:	f44f 3300 	mov.w	r3, #131072	@ 0x20000
 8001838:	fa93 f1a3 	rbit	r1, r3
 800183c:	4907      	ldr	r1, [pc, #28]	@ (800185c <HAL_RCC_ClockConfig+0x174>)
 800183e:	6809      	ldr	r1, [r1, #0]
 8001840:	fa93 f3a3 	rbit	r3, r3
 8001844:	fab3 f383 	clz	r3, r3
 8001848:	fa02 f303 	lsl.w	r3, r2, r3
 800184c:	420b      	tst	r3, r1
 800184e:	d186      	bne.n	800175e <HAL_RCC_ClockConfig+0x76>
 8001850:	e761      	b.n	8001716 <HAL_RCC_ClockConfig+0x2e>
 8001852:	2003      	movs	r0, #3
 8001854:	e760      	b.n	8001718 <HAL_RCC_ClockConfig+0x30>
 8001856:	bf00      	nop
 8001858:	40022000 	.word	0x40022000
 800185c:	40021000 	.word	0x40021000
 8001860:	007a1200 	.word	0x007a1200
 8001864:	0800316c 	.word	0x0800316c
 8001868:	2000000c 	.word	0x2000000c
 800186c:	20000004 	.word	0x20000004
 8001870:	08003184 	.word	0x08003184

08001874 <HAL_RCC_MCOConfig>:
 8001874:	b570      	push	{r4, r5, r6, lr}
 8001876:	f44f 7480 	mov.w	r4, #256	@ 0x100
 800187a:	b088      	sub	sp, #32
 800187c:	2502      	movs	r5, #2
 800187e:	e9cd 4502 	strd	r4, r5, [sp, #8]
 8001882:	2400      	movs	r4, #0
 8001884:	2503      	movs	r5, #3
 8001886:	e9cd 4504 	strd	r4, r5, [sp, #16]
 800188a:	f104 4480 	add.w	r4, r4, #1073741824	@ 0x40000000
 800188e:	f504 3404 	add.w	r4, r4, #135168	@ 0x21000
 8001892:	2300      	movs	r3, #0
 8001894:	9306      	str	r3, [sp, #24]
 8001896:	6963      	ldr	r3, [r4, #20]
 8001898:	f443 3300 	orr.w	r3, r3, #131072	@ 0x20000
 800189c:	6163      	str	r3, [r4, #20]
 800189e:	6963      	ldr	r3, [r4, #20]
 80018a0:	f403 3300 	and.w	r3, r3, #131072	@ 0x20000
 80018a4:	460d      	mov	r5, r1
 80018a6:	9301      	str	r3, [sp, #4]
 80018a8:	a902      	add	r1, sp, #8
 80018aa:	f04f 4090 	mov.w	r0, #1207959552	@ 0x48000000
 80018ae:	9b01      	ldr	r3, [sp, #4]
 80018b0:	4616      	mov	r6, r2
 80018b2:	f7ff f9e9 	bl	8000c88 <HAL_GPIO_Init>
 80018b6:	6863      	ldr	r3, [r4, #4]
 80018b8:	f023 43ee 	bic.w	r3, r3, #1996488704	@ 0x77000000
 80018bc:	ea43 0206 	orr.w	r2, r3, r6
 80018c0:	432a      	orrs	r2, r5
 80018c2:	6062      	str	r2, [r4, #4]
 80018c4:	b008      	add	sp, #32
 80018c6:	bd70      	pop	{r4, r5, r6, pc}

080018c8 <HAL_RCC_EnableCSS>:
 80018c8:	f44f 2300 	mov.w	r3, #524288	@ 0x80000
 80018cc:	fa93 f3a3 	rbit	r3, r3
 80018d0:	fab3 f383 	clz	r3, r3
 80018d4:	f103 5384 	add.w	r3, r3, #276824064	@ 0x10800000
 80018d8:	f503 1384 	add.w	r3, r3, #1081344	@ 0x108000
 80018dc:	009b      	lsls	r3, r3, #2
 80018de:	2201      	movs	r2, #1
 80018e0:	601a      	str	r2, [r3, #0]
 80018e2:	4770      	bx	lr

080018e4 <HAL_RCC_DisableCSS>:
 80018e4:	f44f 2300 	mov.w	r3, #524288	@ 0x80000
 80018e8:	fa93 f3a3 	rbit	r3, r3
 80018ec:	fab3 f383 	clz	r3, r3
 80018f0:	f103 5384 	add.w	r3, r3, #276824064	@ 0x10800000
 80018f4:	f503 1384 	add.w	r3, r3, #1081344	@ 0x108000
 80018f8:	009b      	lsls	r3, r3, #2
 80018fa:	2200      	movs	r2, #0
 80018fc:	601a      	str	r2, [r3, #0]
 80018fe:	4770      	bx	lr

08001900 <HAL_RCC_GetSysClockFreq>:
 8001900:	4a0b      	ldr	r2, [pc, #44]	@ (8001930 <HAL_RCC_GetSysClockFreq+0x30>)
 8001902:	6853      	ldr	r3, [r2, #4]
 8001904:	f003 010c 	and.w	r1, r3, #12
 8001908:	2908      	cmp	r1, #8
 800190a:	d001      	beq.n	8001910 <HAL_RCC_GetSysClockFreq+0x10>
 800190c:	4809      	ldr	r0, [pc, #36]	@ (8001934 <HAL_RCC_GetSysClockFreq+0x34>)
 800190e:	4770      	bx	lr
 8001910:	6ad1      	ldr	r1, [r2, #44]	@ 0x2c
 8001912:	4a09      	ldr	r2, [pc, #36]	@ (8001938 <HAL_RCC_GetSysClockFreq+0x38>)
 8001914:	4807      	ldr	r0, [pc, #28]	@ (8001934 <HAL_RCC_GetSysClockFreq+0x34>)
 8001916:	f3c3 4383 	ubfx	r3, r3, #18, #4
 800191a:	f001 010f 	and.w	r1, r1, #15
 800191e:	5cd3      	ldrb	r3, [r2, r3]
 8001920:	440a      	add	r2, r1
 8001922:	7c12      	ldrb	r2, [r2, #16]
 8001924:	fbb0 f0f2 	udiv	r0, r0, r2
 8001928:	fb03 f000 	mul.w	r0, r3, r0
 800192c:	4770      	bx	lr
 800192e:	bf00      	nop
 8001930:	40021000 	.word	0x40021000
 8001934:	007a1200 	.word	0x007a1200
 8001938:	08003184 	.word	0x08003184

0800193c <HAL_RCC_GetHCLKFreq>:
 800193c:	4b01      	ldr	r3, [pc, #4]	@ (8001944 <HAL_RCC_GetHCLKFreq+0x8>)
 800193e:	6818      	ldr	r0, [r3, #0]
 8001940:	4770      	bx	lr
 8001942:	bf00      	nop
 8001944:	20000004 	.word	0x20000004

08001948 <HAL_RCC_GetPCLK1Freq>:
 8001948:	4b08      	ldr	r3, [pc, #32]	@ (800196c <HAL_RCC_GetPCLK1Freq+0x24>)
 800194a:	f44f 62e0 	mov.w	r2, #1792	@ 0x700
 800194e:	685b      	ldr	r3, [r3, #4]
 8001950:	fa92 f2a2 	rbit	r2, r2
 8001954:	fab2 f282 	clz	r2, r2
 8001958:	f403 63e0 	and.w	r3, r3, #1792	@ 0x700
 800195c:	4904      	ldr	r1, [pc, #16]	@ (8001970 <HAL_RCC_GetPCLK1Freq+0x28>)
 800195e:	4805      	ldr	r0, [pc, #20]	@ (8001974 <HAL_RCC_GetPCLK1Freq+0x2c>)
 8001960:	40d3      	lsrs	r3, r2
 8001962:	6800      	ldr	r0, [r0, #0]
 8001964:	5ccb      	ldrb	r3, [r1, r3]
 8001966:	40d8      	lsrs	r0, r3
 8001968:	4770      	bx	lr
 800196a:	bf00      	nop
 800196c:	40021000 	.word	0x40021000
 8001970:	0800317c 	.word	0x0800317c
 8001974:	20000004 	.word	0x20000004

08001978 <HAL_RCC_GetPCLK2Freq>:
 8001978:	4b08      	ldr	r3, [pc, #32]	@ (800199c <HAL_RCC_GetPCLK2Freq+0x24>)
 800197a:	f44f 5260 	mov.w	r2, #14336	@ 0x3800
 800197e:	685b      	ldr	r3, [r3, #4]
 8001980:	fa92 f2a2 	rbit	r2, r2
 8001984:	fab2 f282 	clz	r2, r2
 8001988:	f403 5360 	and.w	r3, r3, #14336	@ 0x3800
 800198c:	4904      	ldr	r1, [pc, #16]	@ (80019a0 <HAL_RCC_GetPCLK2Freq+0x28>)
 800198e:	4805      	ldr	r0, [pc, #20]	@ (80019a4 <HAL_RCC_GetPCLK2Freq+0x2c>)
 8001990:	40d3      	lsrs	r3, r2
 8001992:	6800      	ldr	r0, [r0, #0]
 8001994:	5ccb      	ldrb	r3, [r1, r3]
 8001996:	40d8      	lsrs	r0, r3
 8001998:	4770      	bx	lr
 800199a:	bf00      	nop
 800199c:	40021000 	.word	0x40021000
 80019a0:	0800317c 	.word	0x0800317c
 80019a4:	20000004 	.word	0x20000004

080019a8 <HAL_RCC_GetOscConfig>:
 80019a8:	4b1b      	ldr	r3, [pc, #108]	@ (8001a18 <HAL_RCC_GetOscConfig+0x70>)
 80019aa:	220f      	movs	r2, #15
 80019ac:	6002      	str	r2, [r0, #0]
 80019ae:	681a      	ldr	r2, [r3, #0]
 80019b0:	0351      	lsls	r1, r2, #13
 80019b2:	bf58      	it	pl
 80019b4:	681a      	ldrpl	r2, [r3, #0]
 80019b6:	4b18      	ldr	r3, [pc, #96]	@ (8001a18 <HAL_RCC_GetOscConfig+0x70>)
 80019b8:	bf54      	ite	pl
 80019ba:	f402 3280 	andpl.w	r2, r2, #65536	@ 0x10000
 80019be:	f44f 22a0 	movmi.w	r2, #327680	@ 0x50000
 80019c2:	6042      	str	r2, [r0, #4]
 80019c4:	681a      	ldr	r2, [r3, #0]
 80019c6:	f002 0201 	and.w	r2, r2, #1
 80019ca:	60c2      	str	r2, [r0, #12]
 80019cc:	681a      	ldr	r2, [r3, #0]
 80019ce:	f3c2 02c4 	ubfx	r2, r2, #3, #5
 80019d2:	6102      	str	r2, [r0, #16]
 80019d4:	6a1a      	ldr	r2, [r3, #32]
 80019d6:	0752      	lsls	r2, r2, #29
 80019d8:	bf58      	it	pl
 80019da:	6a1a      	ldrpl	r2, [r3, #32]
 80019dc:	4b0e      	ldr	r3, [pc, #56]	@ (8001a18 <HAL_RCC_GetOscConfig+0x70>)
 80019de:	bf54      	ite	pl
 80019e0:	f002 0201 	andpl.w	r2, r2, #1
 80019e4:	2205      	movmi	r2, #5
 80019e6:	6082      	str	r2, [r0, #8]
 80019e8:	6a5a      	ldr	r2, [r3, #36]	@ 0x24
 80019ea:	f002 0201 	and.w	r2, r2, #1
 80019ee:	6142      	str	r2, [r0, #20]
 80019f0:	681a      	ldr	r2, [r3, #0]
 80019f2:	f012 7f80 	tst.w	r2, #16777216	@ 0x1000000
 80019f6:	bf0c      	ite	eq
 80019f8:	2201      	moveq	r2, #1
 80019fa:	2202      	movne	r2, #2
 80019fc:	6182      	str	r2, [r0, #24]
 80019fe:	685a      	ldr	r2, [r3, #4]
 8001a00:	f402 32c0 	and.w	r2, r2, #98304	@ 0x18000
 8001a04:	61c2      	str	r2, [r0, #28]
 8001a06:	685a      	ldr	r2, [r3, #4]
 8001a08:	f402 1270 	and.w	r2, r2, #3932160	@ 0x3c0000
 8001a0c:	6202      	str	r2, [r0, #32]
 8001a0e:	6adb      	ldr	r3, [r3, #44]	@ 0x2c
 8001a10:	f003 030f 	and.w	r3, r3, #15
 8001a14:	6243      	str	r3, [r0, #36]	@ 0x24
 8001a16:	4770      	bx	lr
 8001a18:	40021000 	.word	0x40021000

08001a1c <HAL_RCC_GetClockConfig>:
 8001a1c:	4b0e      	ldr	r3, [pc, #56]	@ (8001a58 <HAL_RCC_GetClockConfig+0x3c>)
 8001a1e:	220f      	movs	r2, #15
 8001a20:	6002      	str	r2, [r0, #0]
 8001a22:	685a      	ldr	r2, [r3, #4]
 8001a24:	f002 0203 	and.w	r2, r2, #3
 8001a28:	6042      	str	r2, [r0, #4]
 8001a2a:	685a      	ldr	r2, [r3, #4]
 8001a2c:	f002 02f0 	and.w	r2, r2, #240	@ 0xf0
 8001a30:	6082      	str	r2, [r0, #8]
 8001a32:	685a      	ldr	r2, [r3, #4]
 8001a34:	f402 62e0 	and.w	r2, r2, #1792	@ 0x700
 8001a38:	60c2      	str	r2, [r0, #12]
 8001a3a:	685b      	ldr	r3, [r3, #4]
 8001a3c:	08db      	lsrs	r3, r3, #3
 8001a3e:	b410      	push	{r4}
 8001a40:	f403 63e0 	and.w	r3, r3, #1792	@ 0x700
 8001a44:	4c05      	ldr	r4, [pc, #20]	@ (8001a5c <HAL_RCC_GetClockConfig+0x40>)
 8001a46:	6103      	str	r3, [r0, #16]
 8001a48:	6823      	ldr	r3, [r4, #0]
 8001a4a:	f85d 4b04 	ldr.w	r4, [sp], #4
 8001a4e:	f003 0307 	and.w	r3, r3, #7
 8001a52:	600b      	str	r3, [r1, #0]
 8001a54:	4770      	bx	lr
 8001a56:	bf00      	nop
 8001a58:	40021000 	.word	0x40021000
 8001a5c:	40022000 	.word	0x40022000

08001a60 <HAL_RCC_CSSCallback>:
 8001a60:	4770      	bx	lr
 8001a62:	bf00      	nop

08001a64 <HAL_RCC_NMI_IRQHandler>:
 8001a64:	b510      	push	{r4, lr}
 8001a66:	4c05      	ldr	r4, [pc, #20]	@ (8001a7c <HAL_RCC_NMI_IRQHandler+0x18>)
 8001a68:	68a3      	ldr	r3, [r4, #8]
 8001a6a:	061b      	lsls	r3, r3, #24
 8001a6c:	d400      	bmi.n	8001a70 <HAL_RCC_NMI_IRQHandler+0xc>
 8001a6e:	bd10      	pop	{r4, pc}
 8001a70:	f7ff fff6 	bl	8001a60 <HAL_RCC_CSSCallback>
 8001a74:	2380      	movs	r3, #128	@ 0x80
 8001a76:	72a3      	strb	r3, [r4, #10]
 8001a78:	bd10      	pop	{r4, pc}
 8001a7a:	bf00      	nop
 8001a7c:	40021000 	.word	0x40021000

08001a80 <HAL_RCCEx_PeriphCLKConfig>:
 8001a80:	e92d 43f0 	stmdb	sp!, {r4, r5, r6, r7, r8, r9, lr}
 8001a84:	6803      	ldr	r3, [r0, #0]
 8001a86:	03d9      	lsls	r1, r3, #15
 8001a88:	b083      	sub	sp, #12
 8001a8a:	4604      	mov	r4, r0
 8001a8c:	d540      	bpl.n	8001b10 <HAL_RCCEx_PeriphCLKConfig+0x90>
 8001a8e:	4b9d      	ldr	r3, [pc, #628]	@ (8001d04 <HAL_RCCEx_PeriphCLKConfig+0x284>)
 8001a90:	69da      	ldr	r2, [r3, #28]
 8001a92:	00d2      	lsls	r2, r2, #3
 8001a94:	f140 80f5 	bpl.w	8001c82 <HAL_RCCEx_PeriphCLKConfig+0x202>
 8001a98:	4d9b      	ldr	r5, [pc, #620]	@ (8001d08 <HAL_RCCEx_PeriphCLKConfig+0x288>)
 8001a9a:	682b      	ldr	r3, [r5, #0]
 8001a9c:	05df      	lsls	r7, r3, #23
 8001a9e:	f04f 0600 	mov.w	r6, #0
 8001aa2:	f140 80fe 	bpl.w	8001ca2 <HAL_RCCEx_PeriphCLKConfig+0x222>
 8001aa6:	f8df 825c 	ldr.w	r8, [pc, #604]	@ 8001d04 <HAL_RCCEx_PeriphCLKConfig+0x284>
 8001aaa:	6861      	ldr	r1, [r4, #4]
 8001aac:	f8d8 3020 	ldr.w	r3, [r8, #32]
 8001ab0:	f413 7340 	ands.w	r3, r3, #768	@ 0x300
 8001ab4:	d020      	beq.n	8001af8 <HAL_RCCEx_PeriphCLKConfig+0x78>
 8001ab6:	f401 7240 	and.w	r2, r1, #768	@ 0x300
 8001aba:	429a      	cmp	r2, r3
 8001abc:	d01c      	beq.n	8001af8 <HAL_RCCEx_PeriphCLKConfig+0x78>
 8001abe:	f8d8 1020 	ldr.w	r1, [r8, #32]
 8001ac2:	f44f 3380 	mov.w	r3, #65536	@ 0x10000
 8001ac6:	f421 7040 	bic.w	r0, r1, #768	@ 0x300
 8001aca:	fa93 f2a3 	rbit	r2, r3
 8001ace:	4f8f      	ldr	r7, [pc, #572]	@ (8001d0c <HAL_RCCEx_PeriphCLKConfig+0x28c>)
 8001ad0:	fab2 f282 	clz	r2, r2
 8001ad4:	443a      	add	r2, r7
 8001ad6:	0092      	lsls	r2, r2, #2
 8001ad8:	2501      	movs	r5, #1
 8001ada:	6015      	str	r5, [r2, #0]
 8001adc:	fa93 f3a3 	rbit	r3, r3
 8001ae0:	fab3 f383 	clz	r3, r3
 8001ae4:	443b      	add	r3, r7
 8001ae6:	009b      	lsls	r3, r3, #2
 8001ae8:	2200      	movs	r2, #0
 8001aea:	07c9      	lsls	r1, r1, #31
 8001aec:	601a      	str	r2, [r3, #0]
 8001aee:	f8c8 0020 	str.w	r0, [r8, #32]
 8001af2:	f100 80ea 	bmi.w	8001cca <HAL_RCCEx_PeriphCLKConfig+0x24a>
 8001af6:	6861      	ldr	r1, [r4, #4]
 8001af8:	4a82      	ldr	r2, [pc, #520]	@ (8001d04 <HAL_RCCEx_PeriphCLKConfig+0x284>)
 8001afa:	6a13      	ldr	r3, [r2, #32]
 8001afc:	f423 7340 	bic.w	r3, r3, #768	@ 0x300
 8001b00:	430b      	orrs	r3, r1
 8001b02:	6213      	str	r3, [r2, #32]
 8001b04:	b11e      	cbz	r6, 8001b0e <HAL_RCCEx_PeriphCLKConfig+0x8e>
 8001b06:	69d3      	ldr	r3, [r2, #28]
 8001b08:	f023 5380 	bic.w	r3, r3, #268435456	@ 0x10000000
 8001b0c:	61d3      	str	r3, [r2, #28]
 8001b0e:	6823      	ldr	r3, [r4, #0]
 8001b10:	07da      	lsls	r2, r3, #31
 8001b12:	d506      	bpl.n	8001b22 <HAL_RCCEx_PeriphCLKConfig+0xa2>
 8001b14:	497b      	ldr	r1, [pc, #492]	@ (8001d04 <HAL_RCCEx_PeriphCLKConfig+0x284>)
 8001b16:	68a0      	ldr	r0, [r4, #8]
 8001b18:	6b0a      	ldr	r2, [r1, #48]	@ 0x30
 8001b1a:	f022 0203 	bic.w	r2, r2, #3
 8001b1e:	4302      	orrs	r2, r0
 8001b20:	630a      	str	r2, [r1, #48]	@ 0x30
 8001b22:	079f      	lsls	r7, r3, #30
 8001b24:	d506      	bpl.n	8001b34 <HAL_RCCEx_PeriphCLKConfig+0xb4>
 8001b26:	4977      	ldr	r1, [pc, #476]	@ (8001d04 <HAL_RCCEx_PeriphCLKConfig+0x284>)
 8001b28:	68e0      	ldr	r0, [r4, #12]
 8001b2a:	6b0a      	ldr	r2, [r1, #48]	@ 0x30
 8001b2c:	f422 3240 	bic.w	r2, r2, #196608	@ 0x30000
 8001b30:	4302      	orrs	r2, r0
 8001b32:	630a      	str	r2, [r1, #48]	@ 0x30
 8001b34:	075e      	lsls	r6, r3, #29
 8001b36:	d506      	bpl.n	8001b46 <HAL_RCCEx_PeriphCLKConfig+0xc6>
 8001b38:	4972      	ldr	r1, [pc, #456]	@ (8001d04 <HAL_RCCEx_PeriphCLKConfig+0x284>)
 8001b3a:	6920      	ldr	r0, [r4, #16]
 8001b3c:	6b0a      	ldr	r2, [r1, #48]	@ 0x30
 8001b3e:	f422 2240 	bic.w	r2, r2, #786432	@ 0xc0000
 8001b42:	4302      	orrs	r2, r0
 8001b44:	630a      	str	r2, [r1, #48]	@ 0x30
 8001b46:	069d      	lsls	r5, r3, #26
 8001b48:	d506      	bpl.n	8001b58 <HAL_RCCEx_PeriphCLKConfig+0xd8>
 8001b4a:	496e      	ldr	r1, [pc, #440]	@ (8001d04 <HAL_RCCEx_PeriphCLKConfig+0x284>)
 8001b4c:	69e0      	ldr	r0, [r4, #28]
 8001b4e:	6b0a      	ldr	r2, [r1, #48]	@ 0x30
 8001b50:	f022 0210 	bic.w	r2, r2, #16
 8001b54:	4302      	orrs	r2, r0
 8001b56:	630a      	str	r2, [r1, #48]	@ 0x30
 8001b58:	0398      	lsls	r0, r3, #14
 8001b5a:	d506      	bpl.n	8001b6a <HAL_RCCEx_PeriphCLKConfig+0xea>
 8001b5c:	4969      	ldr	r1, [pc, #420]	@ (8001d04 <HAL_RCCEx_PeriphCLKConfig+0x284>)
 8001b5e:	6d60      	ldr	r0, [r4, #84]	@ 0x54
 8001b60:	684a      	ldr	r2, [r1, #4]
 8001b62:	f422 0280 	bic.w	r2, r2, #4194304	@ 0x400000
 8001b66:	4302      	orrs	r2, r0
 8001b68:	604a      	str	r2, [r1, #4]
 8001b6a:	0659      	lsls	r1, r3, #25
 8001b6c:	d506      	bpl.n	8001b7c <HAL_RCCEx_PeriphCLKConfig+0xfc>
 8001b6e:	4965      	ldr	r1, [pc, #404]	@ (8001d04 <HAL_RCCEx_PeriphCLKConfig+0x284>)
 8001b70:	6a20      	ldr	r0, [r4, #32]
 8001b72:	6b0a      	ldr	r2, [r1, #48]	@ 0x30
 8001b74:	f022 0220 	bic.w	r2, r2, #32
 8001b78:	4302      	orrs	r2, r0
 8001b7a:	630a      	str	r2, [r1, #48]	@ 0x30
 8001b7c:	035a      	lsls	r2, r3, #13
 8001b7e:	d506      	bpl.n	8001b8e <HAL_RCCEx_PeriphCLKConfig+0x10e>
 8001b80:	4960      	ldr	r1, [pc, #384]	@ (8001d04 <HAL_RCCEx_PeriphCLKConfig+0x284>)
 8001b82:	6a60      	ldr	r0, [r4, #36]	@ 0x24
 8001b84:	6b0a      	ldr	r2, [r1, #48]	@ 0x30
 8001b86:	f022 0240 	bic.w	r2, r2, #64	@ 0x40
 8001b8a:	4302      	orrs	r2, r0
 8001b8c:	630a      	str	r2, [r1, #48]	@ 0x30
 8001b8e:	071f      	lsls	r7, r3, #28
 8001b90:	d506      	bpl.n	8001ba0 <HAL_RCCEx_PeriphCLKConfig+0x120>
 8001b92:	495c      	ldr	r1, [pc, #368]	@ (8001d04 <HAL_RCCEx_PeriphCLKConfig+0x284>)
 8001b94:	6960      	ldr	r0, [r4, #20]
 8001b96:	6b0a      	ldr	r2, [r1, #48]	@ 0x30
 8001b98:	f422 1240 	bic.w	r2, r2, #3145728	@ 0x300000
 8001b9c:	4302      	orrs	r2, r0
 8001b9e:	630a      	str	r2, [r1, #48]	@ 0x30
 8001ba0:	06de      	lsls	r6, r3, #27
 8001ba2:	d506      	bpl.n	8001bb2 <HAL_RCCEx_PeriphCLKConfig+0x132>
 8001ba4:	4957      	ldr	r1, [pc, #348]	@ (8001d04 <HAL_RCCEx_PeriphCLKConfig+0x284>)
 8001ba6:	69a0      	ldr	r0, [r4, #24]
 8001ba8:	6b0a      	ldr	r2, [r1, #48]	@ 0x30
 8001baa:	f422 0240 	bic.w	r2, r2, #12582912	@ 0xc00000
 8001bae:	4302      	orrs	r2, r0
 8001bb0:	630a      	str	r2, [r1, #48]	@ 0x30
 8001bb2:	059d      	lsls	r5, r3, #22
 8001bb4:	d506      	bpl.n	8001bc4 <HAL_RCCEx_PeriphCLKConfig+0x144>
 8001bb6:	4953      	ldr	r1, [pc, #332]	@ (8001d04 <HAL_RCCEx_PeriphCLKConfig+0x284>)
 8001bb8:	6b20      	ldr	r0, [r4, #48]	@ 0x30
 8001bba:	684a      	ldr	r2, [r1, #4]
 8001bbc:	f422 0200 	bic.w	r2, r2, #8388608	@ 0x800000
 8001bc0:	4302      	orrs	r2, r0
 8001bc2:	604a      	str	r2, [r1, #4]
 8001bc4:	0618      	lsls	r0, r3, #24
 8001bc6:	d506      	bpl.n	8001bd6 <HAL_RCCEx_PeriphCLKConfig+0x156>
 8001bc8:	494e      	ldr	r1, [pc, #312]	@ (8001d04 <HAL_RCCEx_PeriphCLKConfig+0x284>)
 8001bca:	6aa0      	ldr	r0, [r4, #40]	@ 0x28
 8001bcc:	6aca      	ldr	r2, [r1, #44]	@ 0x2c
 8001bce:	f422 72f8 	bic.w	r2, r2, #496	@ 0x1f0
 8001bd2:	4302      	orrs	r2, r0
 8001bd4:	62ca      	str	r2, [r1, #44]	@ 0x2c
 8001bd6:	05d9      	lsls	r1, r3, #23
 8001bd8:	d506      	bpl.n	8001be8 <HAL_RCCEx_PeriphCLKConfig+0x168>
 8001bda:	494a      	ldr	r1, [pc, #296]	@ (8001d04 <HAL_RCCEx_PeriphCLKConfig+0x284>)
 8001bdc:	6ae0      	ldr	r0, [r4, #44]	@ 0x2c
 8001bde:	6aca      	ldr	r2, [r1, #44]	@ 0x2c
 8001be0:	f422 5278 	bic.w	r2, r2, #15872	@ 0x3e00
 8001be4:	4302      	orrs	r2, r0
 8001be6:	62ca      	str	r2, [r1, #44]	@ 0x2c
 8001be8:	04da      	lsls	r2, r3, #19
 8001bea:	d506      	bpl.n	8001bfa <HAL_RCCEx_PeriphCLKConfig+0x17a>
 8001bec:	4945      	ldr	r1, [pc, #276]	@ (8001d04 <HAL_RCCEx_PeriphCLKConfig+0x284>)
 8001bee:	6b60      	ldr	r0, [r4, #52]	@ 0x34
 8001bf0:	6b0a      	ldr	r2, [r1, #48]	@ 0x30
 8001bf2:	f422 7280 	bic.w	r2, r2, #256	@ 0x100
 8001bf6:	4302      	orrs	r2, r0
 8001bf8:	630a      	str	r2, [r1, #48]	@ 0x30
 8001bfa:	049f      	lsls	r7, r3, #18
 8001bfc:	d506      	bpl.n	8001c0c <HAL_RCCEx_PeriphCLKConfig+0x18c>
 8001bfe:	4941      	ldr	r1, [pc, #260]	@ (8001d04 <HAL_RCCEx_PeriphCLKConfig+0x284>)
 8001c00:	6c20      	ldr	r0, [r4, #64]	@ 0x40
 8001c02:	6b0a      	ldr	r2, [r1, #48]	@ 0x30
 8001c04:	f422 7200 	bic.w	r2, r2, #512	@ 0x200
 8001c08:	4302      	orrs	r2, r0
 8001c0a:	630a      	str	r2, [r1, #48]	@ 0x30
 8001c0c:	02de      	lsls	r6, r3, #11
 8001c0e:	d506      	bpl.n	8001c1e <HAL_RCCEx_PeriphCLKConfig+0x19e>
 8001c10:	493c      	ldr	r1, [pc, #240]	@ (8001d04 <HAL_RCCEx_PeriphCLKConfig+0x284>)
 8001c12:	6ba0      	ldr	r0, [r4, #56]	@ 0x38
 8001c14:	6b0a      	ldr	r2, [r1, #48]	@ 0x30
 8001c16:	f022 7280 	bic.w	r2, r2, #16777216	@ 0x1000000
 8001c1a:	4302      	orrs	r2, r0
 8001c1c:	630a      	str	r2, [r1, #48]	@ 0x30
 8001c1e:	029d      	lsls	r5, r3, #10
 8001c20:	d506      	bpl.n	8001c30 <HAL_RCCEx_PeriphCLKConfig+0x1b0>
 8001c22:	4938      	ldr	r1, [pc, #224]	@ (8001d04 <HAL_RCCEx_PeriphCLKConfig+0x284>)
 8001c24:	6be0      	ldr	r0, [r4, #60]	@ 0x3c
 8001c26:	6b0a      	ldr	r2, [r1, #48]	@ 0x30
 8001c28:	f022 7200 	bic.w	r2, r2, #33554432	@ 0x2000000
 8001c2c:	4302      	orrs	r2, r0
 8001c2e:	630a      	str	r2, [r1, #48]	@ 0x30
 8001c30:	0258      	lsls	r0, r3, #9
 8001c32:	d506      	bpl.n	8001c42 <HAL_RCCEx_PeriphCLKConfig+0x1c2>
 8001c34:	4933      	ldr	r1, [pc, #204]	@ (8001d04 <HAL_RCCEx_PeriphCLKConfig+0x284>)
 8001c36:	6c60      	ldr	r0, [r4, #68]	@ 0x44
 8001c38:	6b0a      	ldr	r2, [r1, #48]	@ 0x30
 8001c3a:	f422 6280 	bic.w	r2, r2, #1024	@ 0x400
 8001c3e:	4302      	orrs	r2, r0
 8001c40:	630a      	str	r2, [r1, #48]	@ 0x30
 8001c42:	0219      	lsls	r1, r3, #8
 8001c44:	d506      	bpl.n	8001c54 <HAL_RCCEx_PeriphCLKConfig+0x1d4>
 8001c46:	492f      	ldr	r1, [pc, #188]	@ (8001d04 <HAL_RCCEx_PeriphCLKConfig+0x284>)
 8001c48:	6ca0      	ldr	r0, [r4, #72]	@ 0x48
 8001c4a:	6b0a      	ldr	r2, [r1, #48]	@ 0x30
 8001c4c:	f422 6200 	bic.w	r2, r2, #2048	@ 0x800
 8001c50:	4302      	orrs	r2, r0
 8001c52:	630a      	str	r2, [r1, #48]	@ 0x30
 8001c54:	01da      	lsls	r2, r3, #7
 8001c56:	d506      	bpl.n	8001c66 <HAL_RCCEx_PeriphCLKConfig+0x1e6>
 8001c58:	492a      	ldr	r1, [pc, #168]	@ (8001d04 <HAL_RCCEx_PeriphCLKConfig+0x284>)
 8001c5a:	6ce0      	ldr	r0, [r4, #76]	@ 0x4c
 8001c5c:	6b0a      	ldr	r2, [r1, #48]	@ 0x30
 8001c5e:	f422 5200 	bic.w	r2, r2, #8192	@ 0x2000
 8001c62:	4302      	orrs	r2, r0
 8001c64:	630a      	str	r2, [r1, #48]	@ 0x30
 8001c66:	019b      	lsls	r3, r3, #6
 8001c68:	d403      	bmi.n	8001c72 <HAL_RCCEx_PeriphCLKConfig+0x1f2>
 8001c6a:	2000      	movs	r0, #0
 8001c6c:	b003      	add	sp, #12
 8001c6e:	e8bd 83f0 	ldmia.w	sp!, {r4, r5, r6, r7, r8, r9, pc}
 8001c72:	4a24      	ldr	r2, [pc, #144]	@ (8001d04 <HAL_RCCEx_PeriphCLKConfig+0x284>)
 8001c74:	6d21      	ldr	r1, [r4, #80]	@ 0x50
 8001c76:	6b13      	ldr	r3, [r2, #48]	@ 0x30
 8001c78:	f423 4300 	bic.w	r3, r3, #32768	@ 0x8000
 8001c7c:	430b      	orrs	r3, r1
 8001c7e:	6313      	str	r3, [r2, #48]	@ 0x30
 8001c80:	e7f3      	b.n	8001c6a <HAL_RCCEx_PeriphCLKConfig+0x1ea>
 8001c82:	69da      	ldr	r2, [r3, #28]
 8001c84:	4d20      	ldr	r5, [pc, #128]	@ (8001d08 <HAL_RCCEx_PeriphCLKConfig+0x288>)
 8001c86:	f042 5280 	orr.w	r2, r2, #268435456	@ 0x10000000
 8001c8a:	61da      	str	r2, [r3, #28]
 8001c8c:	69db      	ldr	r3, [r3, #28]
 8001c8e:	f003 5380 	and.w	r3, r3, #268435456	@ 0x10000000
 8001c92:	9301      	str	r3, [sp, #4]
 8001c94:	9b01      	ldr	r3, [sp, #4]
 8001c96:	682b      	ldr	r3, [r5, #0]
 8001c98:	05df      	lsls	r7, r3, #23
 8001c9a:	f04f 0601 	mov.w	r6, #1
 8001c9e:	f53f af02 	bmi.w	8001aa6 <HAL_RCCEx_PeriphCLKConfig+0x26>
 8001ca2:	682b      	ldr	r3, [r5, #0]
 8001ca4:	f443 7380 	orr.w	r3, r3, #256	@ 0x100
 8001ca8:	602b      	str	r3, [r5, #0]
 8001caa:	f7fe fdcb 	bl	8000844 <HAL_GetTick>
 8001cae:	4607      	mov	r7, r0
 8001cb0:	682b      	ldr	r3, [r5, #0]
 8001cb2:	05d8      	lsls	r0, r3, #23
 8001cb4:	f53f aef7 	bmi.w	8001aa6 <HAL_RCCEx_PeriphCLKConfig+0x26>
 8001cb8:	f7fe fdc4 	bl	8000844 <HAL_GetTick>
 8001cbc:	1bc0      	subs	r0, r0, r7
 8001cbe:	2864      	cmp	r0, #100	@ 0x64
 8001cc0:	d9f6      	bls.n	8001cb0 <HAL_RCCEx_PeriphCLKConfig+0x230>
 8001cc2:	2003      	movs	r0, #3
 8001cc4:	b003      	add	sp, #12
 8001cc6:	e8bd 83f0 	ldmia.w	sp!, {r4, r5, r6, r7, r8, r9, pc}
 8001cca:	f7fe fdbb 	bl	8000844 <HAL_GetTick>
 8001cce:	f04f 0902 	mov.w	r9, #2
 8001cd2:	4607      	mov	r7, r0
 8001cd4:	fa99 f3a9 	rbit	r3, r9
 8001cd8:	fa99 f3a9 	rbit	r3, r9
 8001cdc:	f8d8 2020 	ldr.w	r2, [r8, #32]
 8001ce0:	fa99 f3a9 	rbit	r3, r9
 8001ce4:	fab3 f383 	clz	r3, r3
 8001ce8:	fa05 f303 	lsl.w	r3, r5, r3
 8001cec:	4213      	tst	r3, r2
 8001cee:	f47f af02 	bne.w	8001af6 <HAL_RCCEx_PeriphCLKConfig+0x76>
 8001cf2:	f7fe fda7 	bl	8000844 <HAL_GetTick>
 8001cf6:	f241 3388 	movw	r3, #5000	@ 0x1388
 8001cfa:	1bc0      	subs	r0, r0, r7
 8001cfc:	4298      	cmp	r0, r3
 8001cfe:	d9e9      	bls.n	8001cd4 <HAL_RCCEx_PeriphCLKConfig+0x254>
 8001d00:	e7df      	b.n	8001cc2 <HAL_RCCEx_PeriphCLKConfig+0x242>
 8001d02:	bf00      	nop
 8001d04:	40021000 	.word	0x40021000
 8001d08:	40007000 	.word	0x40007000
 8001d0c:	10908100 	.word	0x10908100

08001d10 <HAL_RCCEx_GetPeriphCLKConfig>:
 8001d10:	4b2b      	ldr	r3, [pc, #172]	@ (8001dc0 <HAL_RCCEx_GetPeriphCLKConfig+0xb0>)
 8001d12:	492c      	ldr	r1, [pc, #176]	@ (8001dc4 <HAL_RCCEx_GetPeriphCLKConfig+0xb4>)
 8001d14:	6a1a      	ldr	r2, [r3, #32]
 8001d16:	f402 7240 	and.w	r2, r2, #768	@ 0x300
 8001d1a:	6042      	str	r2, [r0, #4]
 8001d1c:	6b1a      	ldr	r2, [r3, #48]	@ 0x30
 8001d1e:	f002 0203 	and.w	r2, r2, #3
 8001d22:	6082      	str	r2, [r0, #8]
 8001d24:	6b1a      	ldr	r2, [r3, #48]	@ 0x30
 8001d26:	f402 3240 	and.w	r2, r2, #196608	@ 0x30000
 8001d2a:	60c2      	str	r2, [r0, #12]
 8001d2c:	6b1a      	ldr	r2, [r3, #48]	@ 0x30
 8001d2e:	f402 2240 	and.w	r2, r2, #786432	@ 0xc0000
 8001d32:	6102      	str	r2, [r0, #16]
 8001d34:	6b1a      	ldr	r2, [r3, #48]	@ 0x30
 8001d36:	f002 0210 	and.w	r2, r2, #16
 8001d3a:	61c2      	str	r2, [r0, #28]
 8001d3c:	685a      	ldr	r2, [r3, #4]
 8001d3e:	f402 0280 	and.w	r2, r2, #4194304	@ 0x400000
 8001d42:	6542      	str	r2, [r0, #84]	@ 0x54
 8001d44:	6b1a      	ldr	r2, [r3, #48]	@ 0x30
 8001d46:	f002 0220 	and.w	r2, r2, #32
 8001d4a:	6202      	str	r2, [r0, #32]
 8001d4c:	6b1a      	ldr	r2, [r3, #48]	@ 0x30
 8001d4e:	f002 0240 	and.w	r2, r2, #64	@ 0x40
 8001d52:	6242      	str	r2, [r0, #36]	@ 0x24
 8001d54:	6b1a      	ldr	r2, [r3, #48]	@ 0x30
 8001d56:	f402 1240 	and.w	r2, r2, #3145728	@ 0x300000
 8001d5a:	6142      	str	r2, [r0, #20]
 8001d5c:	6b1a      	ldr	r2, [r3, #48]	@ 0x30
 8001d5e:	f402 0240 	and.w	r2, r2, #12582912	@ 0xc00000
 8001d62:	6182      	str	r2, [r0, #24]
 8001d64:	685a      	ldr	r2, [r3, #4]
 8001d66:	f402 0200 	and.w	r2, r2, #8388608	@ 0x800000
 8001d6a:	6302      	str	r2, [r0, #48]	@ 0x30
 8001d6c:	6ada      	ldr	r2, [r3, #44]	@ 0x2c
 8001d6e:	f402 72f8 	and.w	r2, r2, #496	@ 0x1f0
 8001d72:	6282      	str	r2, [r0, #40]	@ 0x28
 8001d74:	6ada      	ldr	r2, [r3, #44]	@ 0x2c
 8001d76:	f402 5278 	and.w	r2, r2, #15872	@ 0x3e00
 8001d7a:	62c2      	str	r2, [r0, #44]	@ 0x2c
 8001d7c:	6b1a      	ldr	r2, [r3, #48]	@ 0x30
 8001d7e:	f402 7280 	and.w	r2, r2, #256	@ 0x100
 8001d82:	6342      	str	r2, [r0, #52]	@ 0x34
 8001d84:	6b1a      	ldr	r2, [r3, #48]	@ 0x30
 8001d86:	f402 7200 	and.w	r2, r2, #512	@ 0x200
 8001d8a:	6402      	str	r2, [r0, #64]	@ 0x40
 8001d8c:	6b1a      	ldr	r2, [r3, #48]	@ 0x30
 8001d8e:	f002 7280 	and.w	r2, r2, #16777216	@ 0x1000000
 8001d92:	6382      	str	r2, [r0, #56]	@ 0x38
 8001d94:	6b1a      	ldr	r2, [r3, #48]	@ 0x30
 8001d96:	f002 7200 	and.w	r2, r2, #33554432	@ 0x2000000
 8001d9a:	63c2      	str	r2, [r0, #60]	@ 0x3c
 8001d9c:	6b1a      	ldr	r2, [r3, #48]	@ 0x30
 8001d9e:	f402 6280 	and.w	r2, r2, #1024	@ 0x400
 8001da2:	6442      	str	r2, [r0, #68]	@ 0x44
 8001da4:	6b1a      	ldr	r2, [r3, #48]	@ 0x30
 8001da6:	f402 6200 	and.w	r2, r2, #2048	@ 0x800
 8001daa:	6482      	str	r2, [r0, #72]	@ 0x48
 8001dac:	6b1a      	ldr	r2, [r3, #48]	@ 0x30
 8001dae:	6001      	str	r1, [r0, #0]
 8001db0:	f402 5200 	and.w	r2, r2, #8192	@ 0x2000
 8001db4:	64c2      	str	r2, [r0, #76]	@ 0x4c
 8001db6:	6b1b      	ldr	r3, [r3, #48]	@ 0x30
 8001db8:	f403 4300 	and.w	r3, r3, #32768	@ 0x8000
 8001dbc:	6503      	str	r3, [r0, #80]	@ 0x50
 8001dbe:	4770      	bx	lr
 8001dc0:	40021000 	.word	0x40021000
 8001dc4:	03f733ff 	.word	0x03f733ff

08001dc8 <HAL_RCCEx_GetPeriphCLKFreq>:
 8001dc8:	f5b0 5f80 	cmp.w	r0, #4096	@ 0x1000
 8001dcc:	f000 8145 	beq.w	800205a <HAL_RCCEx_GetPeriphCLKFreq+0x292>
 8001dd0:	d84e      	bhi.n	8001e70 <HAL_RCCEx_GetPeriphCLKFreq+0xa8>
 8001dd2:	2820      	cmp	r0, #32
 8001dd4:	d83b      	bhi.n	8001e4e <HAL_RCCEx_GetPeriphCLKFreq+0x86>
 8001dd6:	2800      	cmp	r0, #0
 8001dd8:	f000 80ae 	beq.w	8001f38 <HAL_RCCEx_GetPeriphCLKFreq+0x170>
 8001ddc:	3801      	subs	r0, #1
 8001dde:	281f      	cmp	r0, #31
 8001de0:	d833      	bhi.n	8001e4a <HAL_RCCEx_GetPeriphCLKFreq+0x82>
 8001de2:	e8df f010 	tbh	[pc, r0, lsl #1]
 8001de6:	0106      	.short	0x0106
 8001de8:	003200c5 	.word	0x003200c5
 8001dec:	003200f7 	.word	0x003200f7
 8001df0:	00320032 	.word	0x00320032
 8001df4:	003200e8 	.word	0x003200e8
 8001df8:	00320032 	.word	0x00320032
 8001dfc:	00320032 	.word	0x00320032
 8001e00:	00320032 	.word	0x00320032
 8001e04:	00320020 	.word	0x00320020
 8001e08:	00320032 	.word	0x00320032
 8001e0c:	00320032 	.word	0x00320032
 8001e10:	00320032 	.word	0x00320032
 8001e14:	00320032 	.word	0x00320032
 8001e18:	00320032 	.word	0x00320032
 8001e1c:	00320032 	.word	0x00320032
 8001e20:	00320032 	.word	0x00320032
 8001e24:	00dd      	.short	0x00dd
 8001e26:	4a98      	ldr	r2, [pc, #608]	@ (8002088 <HAL_RCCEx_GetPeriphCLKFreq+0x2c0>)
 8001e28:	6b13      	ldr	r3, [r2, #48]	@ 0x30
 8001e2a:	f413 0340 	ands.w	r3, r3, #12582912	@ 0xc00000
 8001e2e:	f000 810b 	beq.w	8002048 <HAL_RCCEx_GetPeriphCLKFreq+0x280>
 8001e32:	f5b3 0f40 	cmp.w	r3, #12582912	@ 0xc00000
 8001e36:	f000 8109 	beq.w	800204c <HAL_RCCEx_GetPeriphCLKFreq+0x284>
 8001e3a:	f5b3 0f80 	cmp.w	r3, #4194304	@ 0x400000
 8001e3e:	f000 80e2 	beq.w	8002006 <HAL_RCCEx_GetPeriphCLKFreq+0x23e>
 8001e42:	f5b3 0f00 	cmp.w	r3, #8388608	@ 0x800000
 8001e46:	f000 80a2 	beq.w	8001f8e <HAL_RCCEx_GetPeriphCLKFreq+0x1c6>
 8001e4a:	2000      	movs	r0, #0
 8001e4c:	4770      	bx	lr
 8001e4e:	f5b0 7f80 	cmp.w	r0, #256	@ 0x100
 8001e52:	b410      	push	{r4}
 8001e54:	f000 8122 	beq.w	800209c <HAL_RCCEx_GetPeriphCLKFreq+0x2d4>
 8001e58:	d92e      	bls.n	8001eb8 <HAL_RCCEx_GetPeriphCLKFreq+0xf0>
 8001e5a:	f5b0 7f00 	cmp.w	r0, #512	@ 0x200
 8001e5e:	f040 809b 	bne.w	8001f98 <HAL_RCCEx_GetPeriphCLKFreq+0x1d0>
 8001e62:	4b89      	ldr	r3, [pc, #548]	@ (8002088 <HAL_RCCEx_GetPeriphCLKFreq+0x2c0>)
 8001e64:	685b      	ldr	r3, [r3, #4]
 8001e66:	0218      	lsls	r0, r3, #8
 8001e68:	f140 80ea 	bpl.w	8002040 <HAL_RCCEx_GetPeriphCLKFreq+0x278>
 8001e6c:	4887      	ldr	r0, [pc, #540]	@ (800208c <HAL_RCCEx_GetPeriphCLKFreq+0x2c4>)
 8001e6e:	e030      	b.n	8001ed2 <HAL_RCCEx_GetPeriphCLKFreq+0x10a>
 8001e70:	f5b0 1f00 	cmp.w	r0, #2097152	@ 0x200000
 8001e74:	f000 8133 	beq.w	80020de <HAL_RCCEx_GetPeriphCLKFreq+0x316>
 8001e78:	d94c      	bls.n	8001f14 <HAL_RCCEx_GetPeriphCLKFreq+0x14c>
 8001e7a:	f1b0 7f80 	cmp.w	r0, #16777216	@ 0x1000000
 8001e7e:	f000 80f2 	beq.w	8002066 <HAL_RCCEx_GetPeriphCLKFreq+0x29e>
 8001e82:	d929      	bls.n	8001ed8 <HAL_RCCEx_GetPeriphCLKFreq+0x110>
 8001e84:	f1b0 7f00 	cmp.w	r0, #33554432	@ 0x2000000
 8001e88:	d1df      	bne.n	8001e4a <HAL_RCCEx_GetPeriphCLKFreq+0x82>
 8001e8a:	4b7f      	ldr	r3, [pc, #508]	@ (8002088 <HAL_RCCEx_GetPeriphCLKFreq+0x2c0>)
 8001e8c:	6b1a      	ldr	r2, [r3, #48]	@ 0x30
 8001e8e:	0411      	lsls	r1, r2, #16
 8001e90:	d550      	bpl.n	8001f34 <HAL_RCCEx_GetPeriphCLKFreq+0x16c>
 8001e92:	6818      	ldr	r0, [r3, #0]
 8001e94:	f010 7000 	ands.w	r0, r0, #33554432	@ 0x2000000
 8001e98:	d04e      	beq.n	8001f38 <HAL_RCCEx_GetPeriphCLKFreq+0x170>
 8001e9a:	6858      	ldr	r0, [r3, #4]
 8001e9c:	685a      	ldr	r2, [r3, #4]
 8001e9e:	6adb      	ldr	r3, [r3, #44]	@ 0x2c
 8001ea0:	4a7b      	ldr	r2, [pc, #492]	@ (8002090 <HAL_RCCEx_GetPeriphCLKFreq+0x2c8>)
 8001ea2:	f3c0 4083 	ubfx	r0, r0, #18, #4
 8001ea6:	3002      	adds	r0, #2
 8001ea8:	f003 030f 	and.w	r3, r3, #15
 8001eac:	3301      	adds	r3, #1
 8001eae:	fbb2 f3f3 	udiv	r3, r2, r3
 8001eb2:	fb03 f000 	mul.w	r0, r3, r0
 8001eb6:	4770      	bx	lr
 8001eb8:	2840      	cmp	r0, #64	@ 0x40
 8001eba:	f000 8116 	beq.w	80020ea <HAL_RCCEx_GetPeriphCLKFreq+0x322>
 8001ebe:	2880      	cmp	r0, #128	@ 0x80
 8001ec0:	d16a      	bne.n	8001f98 <HAL_RCCEx_GetPeriphCLKFreq+0x1d0>
 8001ec2:	4a71      	ldr	r2, [pc, #452]	@ (8002088 <HAL_RCCEx_GetPeriphCLKFreq+0x2c0>)
 8001ec4:	6ad3      	ldr	r3, [r2, #44]	@ 0x2c
 8001ec6:	f413 73f8 	ands.w	r3, r3, #496	@ 0x1f0
 8001eca:	f040 809e 	bne.w	800200a <HAL_RCCEx_GetPeriphCLKFreq+0x242>
 8001ece:	4b71      	ldr	r3, [pc, #452]	@ (8002094 <HAL_RCCEx_GetPeriphCLKFreq+0x2cc>)
 8001ed0:	6818      	ldr	r0, [r3, #0]
 8001ed2:	f85d 4b04 	ldr.w	r4, [sp], #4
 8001ed6:	4770      	bx	lr
 8001ed8:	f5b0 0f80 	cmp.w	r0, #4194304	@ 0x400000
 8001edc:	f000 80c9 	beq.w	8002072 <HAL_RCCEx_GetPeriphCLKFreq+0x2aa>
 8001ee0:	f5b0 0f00 	cmp.w	r0, #8388608	@ 0x800000
 8001ee4:	d1b1      	bne.n	8001e4a <HAL_RCCEx_GetPeriphCLKFreq+0x82>
 8001ee6:	4b68      	ldr	r3, [pc, #416]	@ (8002088 <HAL_RCCEx_GetPeriphCLKFreq+0x2c0>)
 8001ee8:	6b1a      	ldr	r2, [r3, #48]	@ 0x30
 8001eea:	0512      	lsls	r2, r2, #20
 8001eec:	d522      	bpl.n	8001f34 <HAL_RCCEx_GetPeriphCLKFreq+0x16c>
 8001eee:	6818      	ldr	r0, [r3, #0]
 8001ef0:	f010 7000 	ands.w	r0, r0, #33554432	@ 0x2000000
 8001ef4:	d020      	beq.n	8001f38 <HAL_RCCEx_GetPeriphCLKFreq+0x170>
 8001ef6:	6858      	ldr	r0, [r3, #4]
 8001ef8:	6859      	ldr	r1, [r3, #4]
 8001efa:	6adb      	ldr	r3, [r3, #44]	@ 0x2c
 8001efc:	4a64      	ldr	r2, [pc, #400]	@ (8002090 <HAL_RCCEx_GetPeriphCLKFreq+0x2c8>)
 8001efe:	f3c0 4083 	ubfx	r0, r0, #18, #4
 8001f02:	3002      	adds	r0, #2
 8001f04:	f003 030f 	and.w	r3, r3, #15
 8001f08:	3301      	adds	r3, #1
 8001f0a:	fbb2 f3f3 	udiv	r3, r2, r3
 8001f0e:	fb03 f000 	mul.w	r0, r3, r0
 8001f12:	4770      	bx	lr
 8001f14:	f5b0 3f00 	cmp.w	r0, #131072	@ 0x20000
 8001f18:	f000 80f2 	beq.w	8002100 <HAL_RCCEx_GetPeriphCLKFreq+0x338>
 8001f1c:	d90d      	bls.n	8001f3a <HAL_RCCEx_GetPeriphCLKFreq+0x172>
 8001f1e:	f5b0 2f80 	cmp.w	r0, #262144	@ 0x40000
 8001f22:	f000 80ac 	beq.w	800207e <HAL_RCCEx_GetPeriphCLKFreq+0x2b6>
 8001f26:	f5b0 1f80 	cmp.w	r0, #1048576	@ 0x100000
 8001f2a:	d18e      	bne.n	8001e4a <HAL_RCCEx_GetPeriphCLKFreq+0x82>
 8001f2c:	4b56      	ldr	r3, [pc, #344]	@ (8002088 <HAL_RCCEx_GetPeriphCLKFreq+0x2c0>)
 8001f2e:	6b1a      	ldr	r2, [r3, #48]	@ 0x30
 8001f30:	01d2      	lsls	r2, r2, #7
 8001f32:	d4dc      	bmi.n	8001eee <HAL_RCCEx_GetPeriphCLKFreq+0x126>
 8001f34:	4b57      	ldr	r3, [pc, #348]	@ (8002094 <HAL_RCCEx_GetPeriphCLKFreq+0x2cc>)
 8001f36:	6818      	ldr	r0, [r3, #0]
 8001f38:	4770      	bx	lr
 8001f3a:	f5b0 5f00 	cmp.w	r0, #8192	@ 0x2000
 8001f3e:	f000 80fd 	beq.w	800213c <HAL_RCCEx_GetPeriphCLKFreq+0x374>
 8001f42:	f5b0 3f80 	cmp.w	r0, #65536	@ 0x10000
 8001f46:	d180      	bne.n	8001e4a <HAL_RCCEx_GetPeriphCLKFreq+0x82>
 8001f48:	4a4f      	ldr	r2, [pc, #316]	@ (8002088 <HAL_RCCEx_GetPeriphCLKFreq+0x2c0>)
 8001f4a:	6a13      	ldr	r3, [r2, #32]
 8001f4c:	f403 7340 	and.w	r3, r3, #768	@ 0x300
 8001f50:	f5b3 7f80 	cmp.w	r3, #256	@ 0x100
 8001f54:	d01b      	beq.n	8001f8e <HAL_RCCEx_GetPeriphCLKFreq+0x1c6>
 8001f56:	f5b3 7f00 	cmp.w	r3, #512	@ 0x200
 8001f5a:	f040 80f5 	bne.w	8002148 <HAL_RCCEx_GetPeriphCLKFreq+0x380>
 8001f5e:	4a4a      	ldr	r2, [pc, #296]	@ (8002088 <HAL_RCCEx_GetPeriphCLKFreq+0x2c0>)
 8001f60:	6a50      	ldr	r0, [r2, #36]	@ 0x24
 8001f62:	f649 4340 	movw	r3, #40000	@ 0x9c40
 8001f66:	f010 0002 	ands.w	r0, r0, #2
 8001f6a:	bf18      	it	ne
 8001f6c:	4618      	movne	r0, r3
 8001f6e:	4770      	bx	lr
 8001f70:	4a45      	ldr	r2, [pc, #276]	@ (8002088 <HAL_RCCEx_GetPeriphCLKFreq+0x2c0>)
 8001f72:	6b13      	ldr	r3, [r2, #48]	@ 0x30
 8001f74:	f413 3340 	ands.w	r3, r3, #196608	@ 0x30000
 8001f78:	d066      	beq.n	8002048 <HAL_RCCEx_GetPeriphCLKFreq+0x280>
 8001f7a:	f5b3 3f40 	cmp.w	r3, #196608	@ 0x30000
 8001f7e:	d065      	beq.n	800204c <HAL_RCCEx_GetPeriphCLKFreq+0x284>
 8001f80:	f5b3 3f80 	cmp.w	r3, #65536	@ 0x10000
 8001f84:	d03f      	beq.n	8002006 <HAL_RCCEx_GetPeriphCLKFreq+0x23e>
 8001f86:	f5b3 3f00 	cmp.w	r3, #131072	@ 0x20000
 8001f8a:	f47f af5e 	bne.w	8001e4a <HAL_RCCEx_GetPeriphCLKFreq+0x82>
 8001f8e:	6a10      	ldr	r0, [r2, #32]
 8001f90:	f3c0 0040 	ubfx	r0, r0, #1, #1
 8001f94:	03c0      	lsls	r0, r0, #15
 8001f96:	4770      	bx	lr
 8001f98:	2000      	movs	r0, #0
 8001f9a:	f85d 4b04 	ldr.w	r4, [sp], #4
 8001f9e:	4770      	bx	lr
 8001fa0:	4b39      	ldr	r3, [pc, #228]	@ (8002088 <HAL_RCCEx_GetPeriphCLKFreq+0x2c0>)
 8001fa2:	6b1a      	ldr	r2, [r3, #48]	@ 0x30
 8001fa4:	06d0      	lsls	r0, r2, #27
 8001fa6:	d42e      	bmi.n	8002006 <HAL_RCCEx_GetPeriphCLKFreq+0x23e>
 8001fa8:	6818      	ldr	r0, [r3, #0]
 8001faa:	4b39      	ldr	r3, [pc, #228]	@ (8002090 <HAL_RCCEx_GetPeriphCLKFreq+0x2c8>)
 8001fac:	f010 0002 	ands.w	r0, r0, #2
 8001fb0:	bf18      	it	ne
 8001fb2:	4618      	movne	r0, r3
 8001fb4:	4770      	bx	lr
 8001fb6:	4a34      	ldr	r2, [pc, #208]	@ (8002088 <HAL_RCCEx_GetPeriphCLKFreq+0x2c0>)
 8001fb8:	6b13      	ldr	r3, [r2, #48]	@ 0x30
 8001fba:	f413 1340 	ands.w	r3, r3, #3145728	@ 0x300000
 8001fbe:	d043      	beq.n	8002048 <HAL_RCCEx_GetPeriphCLKFreq+0x280>
 8001fc0:	f5b3 1f40 	cmp.w	r3, #3145728	@ 0x300000
 8001fc4:	d042      	beq.n	800204c <HAL_RCCEx_GetPeriphCLKFreq+0x284>
 8001fc6:	f5b3 1f80 	cmp.w	r3, #1048576	@ 0x100000
 8001fca:	d01c      	beq.n	8002006 <HAL_RCCEx_GetPeriphCLKFreq+0x23e>
 8001fcc:	f5b3 1f00 	cmp.w	r3, #2097152	@ 0x200000
 8001fd0:	d0dd      	beq.n	8001f8e <HAL_RCCEx_GetPeriphCLKFreq+0x1c6>
 8001fd2:	e73a      	b.n	8001e4a <HAL_RCCEx_GetPeriphCLKFreq+0x82>
 8001fd4:	4a2c      	ldr	r2, [pc, #176]	@ (8002088 <HAL_RCCEx_GetPeriphCLKFreq+0x2c0>)
 8001fd6:	6b13      	ldr	r3, [r2, #48]	@ 0x30
 8001fd8:	f413 2340 	ands.w	r3, r3, #786432	@ 0xc0000
 8001fdc:	d034      	beq.n	8002048 <HAL_RCCEx_GetPeriphCLKFreq+0x280>
 8001fde:	f5b3 2f40 	cmp.w	r3, #786432	@ 0xc0000
 8001fe2:	d033      	beq.n	800204c <HAL_RCCEx_GetPeriphCLKFreq+0x284>
 8001fe4:	f5b3 2f80 	cmp.w	r3, #262144	@ 0x40000
 8001fe8:	d00d      	beq.n	8002006 <HAL_RCCEx_GetPeriphCLKFreq+0x23e>
 8001fea:	f5b3 2f00 	cmp.w	r3, #524288	@ 0x80000
 8001fee:	d0ce      	beq.n	8001f8e <HAL_RCCEx_GetPeriphCLKFreq+0x1c6>
 8001ff0:	e72b      	b.n	8001e4a <HAL_RCCEx_GetPeriphCLKFreq+0x82>
 8001ff2:	4a25      	ldr	r2, [pc, #148]	@ (8002088 <HAL_RCCEx_GetPeriphCLKFreq+0x2c0>)
 8001ff4:	6b13      	ldr	r3, [r2, #48]	@ 0x30
 8001ff6:	f013 0303 	ands.w	r3, r3, #3
 8001ffa:	f000 80b1 	beq.w	8002160 <HAL_RCCEx_GetPeriphCLKFreq+0x398>
 8001ffe:	2b03      	cmp	r3, #3
 8002000:	d024      	beq.n	800204c <HAL_RCCEx_GetPeriphCLKFreq+0x284>
 8002002:	2b01      	cmp	r3, #1
 8002004:	d1c3      	bne.n	8001f8e <HAL_RCCEx_GetPeriphCLKFreq+0x1c6>
 8002006:	f7ff bc7b 	b.w	8001900 <HAL_RCC_GetSysClockFreq>
 800200a:	6810      	ldr	r0, [r2, #0]
 800200c:	f010 7000 	ands.w	r0, r0, #33554432	@ 0x2000000
 8002010:	f43f af5f 	beq.w	8001ed2 <HAL_RCCEx_GetPeriphCLKFreq+0x10a>
 8002014:	6850      	ldr	r0, [r2, #4]
 8002016:	6851      	ldr	r1, [r2, #4]
 8002018:	6ad2      	ldr	r2, [r2, #44]	@ 0x2c
 800201a:	4c1f      	ldr	r4, [pc, #124]	@ (8002098 <HAL_RCCEx_GetPeriphCLKFreq+0x2d0>)
 800201c:	491c      	ldr	r1, [pc, #112]	@ (8002090 <HAL_RCCEx_GetPeriphCLKFreq+0x2c8>)
 800201e:	f3c3 1303 	ubfx	r3, r3, #4, #4
 8002022:	f3c0 4083 	ubfx	r0, r0, #18, #4
 8002026:	3002      	adds	r0, #2
 8002028:	f002 020f 	and.w	r2, r2, #15
 800202c:	f834 4013 	ldrh.w	r4, [r4, r3, lsl #1]
 8002030:	3201      	adds	r2, #1
 8002032:	fbb1 f3f2 	udiv	r3, r1, r2
 8002036:	fb03 f000 	mul.w	r0, r3, r0
 800203a:	fbb0 f0f4 	udiv	r0, r0, r4
 800203e:	e748      	b.n	8001ed2 <HAL_RCCEx_GetPeriphCLKFreq+0x10a>
 8002040:	f85d 4b04 	ldr.w	r4, [sp], #4
 8002044:	f7ff bc5c 	b.w	8001900 <HAL_RCC_GetSysClockFreq>
 8002048:	f7ff bc7e 	b.w	8001948 <HAL_RCC_GetPCLK1Freq>
 800204c:	6810      	ldr	r0, [r2, #0]
 800204e:	4b10      	ldr	r3, [pc, #64]	@ (8002090 <HAL_RCCEx_GetPeriphCLKFreq+0x2c8>)
 8002050:	f010 0002 	ands.w	r0, r0, #2
 8002054:	bf18      	it	ne
 8002056:	4618      	movne	r0, r3
 8002058:	4770      	bx	lr
 800205a:	4b0b      	ldr	r3, [pc, #44]	@ (8002088 <HAL_RCCEx_GetPeriphCLKFreq+0x2c0>)
 800205c:	6b1a      	ldr	r2, [r3, #48]	@ 0x30
 800205e:	05d1      	lsls	r1, r2, #23
 8002060:	f57f af68 	bpl.w	8001f34 <HAL_RCCEx_GetPeriphCLKFreq+0x16c>
 8002064:	e715      	b.n	8001e92 <HAL_RCCEx_GetPeriphCLKFreq+0xca>
 8002066:	4b08      	ldr	r3, [pc, #32]	@ (8002088 <HAL_RCCEx_GetPeriphCLKFreq+0x2c0>)
 8002068:	6b1a      	ldr	r2, [r3, #48]	@ 0x30
 800206a:	0490      	lsls	r0, r2, #18
 800206c:	f57f af62 	bpl.w	8001f34 <HAL_RCCEx_GetPeriphCLKFreq+0x16c>
 8002070:	e70f      	b.n	8001e92 <HAL_RCCEx_GetPeriphCLKFreq+0xca>
 8002072:	4b05      	ldr	r3, [pc, #20]	@ (8002088 <HAL_RCCEx_GetPeriphCLKFreq+0x2c0>)
 8002074:	6b1a      	ldr	r2, [r3, #48]	@ 0x30
 8002076:	0551      	lsls	r1, r2, #21
 8002078:	f57f af5c 	bpl.w	8001f34 <HAL_RCCEx_GetPeriphCLKFreq+0x16c>
 800207c:	e709      	b.n	8001e92 <HAL_RCCEx_GetPeriphCLKFreq+0xca>
 800207e:	4b02      	ldr	r3, [pc, #8]	@ (8002088 <HAL_RCCEx_GetPeriphCLKFreq+0x2c0>)
 8002080:	6b1a      	ldr	r2, [r3, #48]	@ 0x30
 8002082:	0652      	lsls	r2, r2, #25
 8002084:	d4bf      	bmi.n	8002006 <HAL_RCCEx_GetPeriphCLKFreq+0x23e>
 8002086:	e78f      	b.n	8001fa8 <HAL_RCCEx_GetPeriphCLKFreq+0x1e0>
 8002088:	40021000 	.word	0x40021000
 800208c:	deaddead 	.word	0xdeaddead
 8002090:	007a1200 	.word	0x007a1200
 8002094:	20000004 	.word	0x20000004
 8002098:	080031a4 	.word	0x080031a4
 800209c:	4a31      	ldr	r2, [pc, #196]	@ (8002164 <HAL_RCCEx_GetPeriphCLKFreq+0x39c>)
 800209e:	6ad3      	ldr	r3, [r2, #44]	@ 0x2c
 80020a0:	f413 5378 	ands.w	r3, r3, #15872	@ 0x3e00
 80020a4:	f43f af13 	beq.w	8001ece <HAL_RCCEx_GetPeriphCLKFreq+0x106>
 80020a8:	6810      	ldr	r0, [r2, #0]
 80020aa:	f010 7000 	ands.w	r0, r0, #33554432	@ 0x2000000
 80020ae:	f43f af10 	beq.w	8001ed2 <HAL_RCCEx_GetPeriphCLKFreq+0x10a>
 80020b2:	6850      	ldr	r0, [r2, #4]
 80020b4:	6851      	ldr	r1, [r2, #4]
 80020b6:	6ad2      	ldr	r2, [r2, #44]	@ 0x2c
 80020b8:	4c2b      	ldr	r4, [pc, #172]	@ (8002168 <HAL_RCCEx_GetPeriphCLKFreq+0x3a0>)
 80020ba:	492c      	ldr	r1, [pc, #176]	@ (800216c <HAL_RCCEx_GetPeriphCLKFreq+0x3a4>)
 80020bc:	f3c3 2343 	ubfx	r3, r3, #9, #4
 80020c0:	f3c0 4083 	ubfx	r0, r0, #18, #4
 80020c4:	3002      	adds	r0, #2
 80020c6:	f002 020f 	and.w	r2, r2, #15
 80020ca:	f834 c013 	ldrh.w	ip, [r4, r3, lsl #1]
 80020ce:	3201      	adds	r2, #1
 80020d0:	fbb1 f3f2 	udiv	r3, r1, r2
 80020d4:	fb03 f000 	mul.w	r0, r3, r0
 80020d8:	fbb0 f0fc 	udiv	r0, r0, ip
 80020dc:	e6f9      	b.n	8001ed2 <HAL_RCCEx_GetPeriphCLKFreq+0x10a>
 80020de:	4b21      	ldr	r3, [pc, #132]	@ (8002164 <HAL_RCCEx_GetPeriphCLKFreq+0x39c>)
 80020e0:	6b1a      	ldr	r2, [r3, #48]	@ 0x30
 80020e2:	0192      	lsls	r2, r2, #6
 80020e4:	f57f af26 	bpl.w	8001f34 <HAL_RCCEx_GetPeriphCLKFreq+0x16c>
 80020e8:	e6d3      	b.n	8001e92 <HAL_RCCEx_GetPeriphCLKFreq+0xca>
 80020ea:	4b1e      	ldr	r3, [pc, #120]	@ (8002164 <HAL_RCCEx_GetPeriphCLKFreq+0x39c>)
 80020ec:	6b1a      	ldr	r2, [r3, #48]	@ 0x30
 80020ee:	0691      	lsls	r1, r2, #26
 80020f0:	d4a6      	bmi.n	8002040 <HAL_RCCEx_GetPeriphCLKFreq+0x278>
 80020f2:	6818      	ldr	r0, [r3, #0]
 80020f4:	4b1d      	ldr	r3, [pc, #116]	@ (800216c <HAL_RCCEx_GetPeriphCLKFreq+0x3a4>)
 80020f6:	f010 0002 	ands.w	r0, r0, #2
 80020fa:	bf18      	it	ne
 80020fc:	4618      	movne	r0, r3
 80020fe:	e6e8      	b.n	8001ed2 <HAL_RCCEx_GetPeriphCLKFreq+0x10a>
 8002100:	4b18      	ldr	r3, [pc, #96]	@ (8002164 <HAL_RCCEx_GetPeriphCLKFreq+0x39c>)
 8002102:	6818      	ldr	r0, [r3, #0]
 8002104:	f010 7000 	ands.w	r0, r0, #33554432	@ 0x2000000
 8002108:	f43f af16 	beq.w	8001f38 <HAL_RCCEx_GetPeriphCLKFreq+0x170>
 800210c:	685a      	ldr	r2, [r3, #4]
 800210e:	6858      	ldr	r0, [r3, #4]
 8002110:	f412 0f80 	tst.w	r2, #4194304	@ 0x400000
 8002114:	685a      	ldr	r2, [r3, #4]
 8002116:	6adb      	ldr	r3, [r3, #44]	@ 0x2c
 8002118:	4a14      	ldr	r2, [pc, #80]	@ (800216c <HAL_RCCEx_GetPeriphCLKFreq+0x3a4>)
 800211a:	f3c0 4083 	ubfx	r0, r0, #18, #4
 800211e:	f100 0002 	add.w	r0, r0, #2
 8002122:	f003 030f 	and.w	r3, r3, #15
 8002126:	f103 0301 	add.w	r3, r3, #1
 800212a:	fbb2 f3f3 	udiv	r3, r2, r3
 800212e:	fb03 f000 	mul.w	r0, r3, r0
 8002132:	bf04      	itt	eq
 8002134:	eb00 0040 	addeq.w	r0, r0, r0, lsl #1
 8002138:	0840      	lsreq	r0, r0, #1
 800213a:	4770      	bx	lr
 800213c:	4b09      	ldr	r3, [pc, #36]	@ (8002164 <HAL_RCCEx_GetPeriphCLKFreq+0x39c>)
 800213e:	6b1a      	ldr	r2, [r3, #48]	@ 0x30
 8002140:	0590      	lsls	r0, r2, #22
 8002142:	f57f aef7 	bpl.w	8001f34 <HAL_RCCEx_GetPeriphCLKFreq+0x16c>
 8002146:	e6a4      	b.n	8001e92 <HAL_RCCEx_GetPeriphCLKFreq+0xca>
 8002148:	f5b3 7f40 	cmp.w	r3, #768	@ 0x300
 800214c:	f47f ae7d 	bne.w	8001e4a <HAL_RCCEx_GetPeriphCLKFreq+0x82>
 8002150:	4a04      	ldr	r2, [pc, #16]	@ (8002164 <HAL_RCCEx_GetPeriphCLKFreq+0x39c>)
 8002152:	4b07      	ldr	r3, [pc, #28]	@ (8002170 <HAL_RCCEx_GetPeriphCLKFreq+0x3a8>)
 8002154:	6810      	ldr	r0, [r2, #0]
 8002156:	f410 3000 	ands.w	r0, r0, #131072	@ 0x20000
 800215a:	bf18      	it	ne
 800215c:	4618      	movne	r0, r3
 800215e:	4770      	bx	lr
 8002160:	f7ff bc0a 	b.w	8001978 <HAL_RCC_GetPCLK2Freq>
 8002164:	40021000 	.word	0x40021000
 8002168:	080031a4 	.word	0x080031a4
 800216c:	007a1200 	.word	0x007a1200
 8002170:	0003d090 	.word	0x0003d090

08002174 <LL_GPIO_DeInit>:
 8002174:	f1b0 4f90 	cmp.w	r0, #1207959552	@ 0x48000000
 8002178:	d024      	beq.n	80021c4 <LL_GPIO_DeInit+0x50>
 800217a:	4b3f      	ldr	r3, [pc, #252]	@ (8002278 <LL_GPIO_DeInit+0x104>)
 800217c:	4298      	cmp	r0, r3
 800217e:	d013      	beq.n	80021a8 <LL_GPIO_DeInit+0x34>
 8002180:	4b3e      	ldr	r3, [pc, #248]	@ (800227c <LL_GPIO_DeInit+0x108>)
 8002182:	4298      	cmp	r0, r3
 8002184:	d036      	beq.n	80021f4 <LL_GPIO_DeInit+0x80>
 8002186:	4b3e      	ldr	r3, [pc, #248]	@ (8002280 <LL_GPIO_DeInit+0x10c>)
 8002188:	4298      	cmp	r0, r3
 800218a:	d040      	beq.n	800220e <LL_GPIO_DeInit+0x9a>
 800218c:	4b3d      	ldr	r3, [pc, #244]	@ (8002284 <LL_GPIO_DeInit+0x110>)
 800218e:	4298      	cmp	r0, r3
 8002190:	d023      	beq.n	80021da <LL_GPIO_DeInit+0x66>
 8002192:	4b3d      	ldr	r3, [pc, #244]	@ (8002288 <LL_GPIO_DeInit+0x114>)
 8002194:	4298      	cmp	r0, r3
 8002196:	d047      	beq.n	8002228 <LL_GPIO_DeInit+0xb4>
 8002198:	4b3c      	ldr	r3, [pc, #240]	@ (800228c <LL_GPIO_DeInit+0x118>)
 800219a:	4298      	cmp	r0, r3
 800219c:	d051      	beq.n	8002242 <LL_GPIO_DeInit+0xce>
 800219e:	4b3c      	ldr	r3, [pc, #240]	@ (8002290 <LL_GPIO_DeInit+0x11c>)
 80021a0:	4298      	cmp	r0, r3
 80021a2:	d05b      	beq.n	800225c <LL_GPIO_DeInit+0xe8>
 80021a4:	2001      	movs	r0, #1
 80021a6:	4770      	bx	lr
 80021a8:	f103 4378 	add.w	r3, r3, #4160749568	@ 0xf8000000
 80021ac:	f503 3303 	add.w	r3, r3, #134144	@ 0x20c00
 80021b0:	6a9a      	ldr	r2, [r3, #40]	@ 0x28
 80021b2:	f442 2280 	orr.w	r2, r2, #262144	@ 0x40000
 80021b6:	629a      	str	r2, [r3, #40]	@ 0x28
 80021b8:	6a9a      	ldr	r2, [r3, #40]	@ 0x28
 80021ba:	f422 2280 	bic.w	r2, r2, #262144	@ 0x40000
 80021be:	629a      	str	r2, [r3, #40]	@ 0x28
 80021c0:	2000      	movs	r0, #0
 80021c2:	4770      	bx	lr
 80021c4:	4b33      	ldr	r3, [pc, #204]	@ (8002294 <LL_GPIO_DeInit+0x120>)
 80021c6:	6a9a      	ldr	r2, [r3, #40]	@ 0x28
 80021c8:	f442 3200 	orr.w	r2, r2, #131072	@ 0x20000
 80021cc:	629a      	str	r2, [r3, #40]	@ 0x28
 80021ce:	6a9a      	ldr	r2, [r3, #40]	@ 0x28
 80021d0:	f422 3200 	bic.w	r2, r2, #131072	@ 0x20000
 80021d4:	629a      	str	r2, [r3, #40]	@ 0x28
 80021d6:	2000      	movs	r0, #0
 80021d8:	4770      	bx	lr
 80021da:	f103 4378 	add.w	r3, r3, #4160749568	@ 0xf8000000
 80021de:	f503 3300 	add.w	r3, r3, #131072	@ 0x20000
 80021e2:	6a9a      	ldr	r2, [r3, #40]	@ 0x28
 80021e4:	f442 1200 	orr.w	r2, r2, #2097152	@ 0x200000
 80021e8:	629a      	str	r2, [r3, #40]	@ 0x28
 80021ea:	6a9a      	ldr	r2, [r3, #40]	@ 0x28
 80021ec:	f422 1200 	bic.w	r2, r2, #2097152	@ 0x200000
 80021f0:	629a      	str	r2, [r3, #40]	@ 0x28
 80021f2:	e7e5      	b.n	80021c0 <LL_GPIO_DeInit+0x4c>
 80021f4:	f103 4378 	add.w	r3, r3, #4160749568	@ 0xf8000000
 80021f8:	f503 3302 	add.w	r3, r3, #133120	@ 0x20800
 80021fc:	6a9a      	ldr	r2, [r3, #40]	@ 0x28
 80021fe:	f442 2200 	orr.w	r2, r2, #524288	@ 0x80000
 8002202:	629a      	str	r2, [r3, #40]	@ 0x28
 8002204:	6a9a      	ldr	r2, [r3, #40]	@ 0x28
 8002206:	f422 2200 	bic.w	r2, r2, #524288	@ 0x80000
 800220a:	629a      	str	r2, [r3, #40]	@ 0x28
 800220c:	e7d8      	b.n	80021c0 <LL_GPIO_DeInit+0x4c>
 800220e:	f103 4378 	add.w	r3, r3, #4160749568	@ 0xf8000000
 8002212:	f503 3301 	add.w	r3, r3, #132096	@ 0x20400
 8002216:	6a9a      	ldr	r2, [r3, #40]	@ 0x28
 8002218:	f442 1280 	orr.w	r2, r2, #1048576	@ 0x100000
 800221c:	629a      	str	r2, [r3, #40]	@ 0x28
 800221e:	6a9a      	ldr	r2, [r3, #40]	@ 0x28
 8002220:	f422 1280 	bic.w	r2, r2, #1048576	@ 0x100000
 8002224:	629a      	str	r2, [r3, #40]	@ 0x28
 8002226:	e7cb      	b.n	80021c0 <LL_GPIO_DeInit+0x4c>
 8002228:	f103 4378 	add.w	r3, r3, #4160749568	@ 0xf8000000
 800222c:	f503 33fe 	add.w	r3, r3, #130048	@ 0x1fc00
 8002230:	6a9a      	ldr	r2, [r3, #40]	@ 0x28
 8002232:	f442 0280 	orr.w	r2, r2, #4194304	@ 0x400000
 8002236:	629a      	str	r2, [r3, #40]	@ 0x28
 8002238:	6a9a      	ldr	r2, [r3, #40]	@ 0x28
 800223a:	f422 0280 	bic.w	r2, r2, #4194304	@ 0x400000
 800223e:	629a      	str	r2, [r3, #40]	@ 0x28
 8002240:	e7be      	b.n	80021c0 <LL_GPIO_DeInit+0x4c>
 8002242:	f103 23f8 	add.w	r3, r3, #4160813056	@ 0xf800f800
 8002246:	f503 3380 	add.w	r3, r3, #65536	@ 0x10000
 800224a:	6a9a      	ldr	r2, [r3, #40]	@ 0x28
 800224c:	f442 0200 	orr.w	r2, r2, #8388608	@ 0x800000
 8002250:	629a      	str	r2, [r3, #40]	@ 0x28
 8002252:	6a9a      	ldr	r2, [r3, #40]	@ 0x28
 8002254:	f422 0200 	bic.w	r2, r2, #8388608	@ 0x800000
 8002258:	629a      	str	r2, [r3, #40]	@ 0x28
 800225a:	e7b1      	b.n	80021c0 <LL_GPIO_DeInit+0x4c>
 800225c:	f103 4378 	add.w	r3, r3, #4160749568	@ 0xf8000000
 8002260:	f503 33fa 	add.w	r3, r3, #128000	@ 0x1f400
 8002264:	6a9a      	ldr	r2, [r3, #40]	@ 0x28
 8002266:	f442 3280 	orr.w	r2, r2, #65536	@ 0x10000
 800226a:	629a      	str	r2, [r3, #40]	@ 0x28
 800226c:	6a9a      	ldr	r2, [r3, #40]	@ 0x28
 800226e:	f422 3280 	bic.w	r2, r2, #65536	@ 0x10000
 8002272:	629a      	str	r2, [r3, #40]	@ 0x28
 8002274:	e7a4      	b.n	80021c0 <LL_GPIO_DeInit+0x4c>
 8002276:	bf00      	nop
 8002278:	48000400 	.word	0x48000400
 800227c:	48000800 	.word	0x48000800
 8002280:	48000c00 	.word	0x48000c00
 8002284:	48001000 	.word	0x48001000
 8002288:	48001400 	.word	0x48001400
 800228c:	48001800 	.word	0x48001800
 8002290:	48001c00 	.word	0x48001c00
 8002294:	40021000 	.word	0x40021000

08002298 <LL_GPIO_Init>:
 8002298:	e92d 4ff0 	stmdb	sp!, {r4, r5, r6, r7, r8, r9, sl, fp, lr}
 800229c:	680c      	ldr	r4, [r1, #0]
 800229e:	b083      	sub	sp, #12
 80022a0:	fa94 f2a4 	rbit	r2, r4
 80022a4:	fab2 f282 	clz	r2, r2
 80022a8:	fa34 f302 	lsrs.w	r3, r4, r2
 80022ac:	f000 8085 	beq.w	80023ba <LL_GPIO_Init+0x122>
 80022b0:	43e3      	mvns	r3, r4
 80022b2:	f04f 0e01 	mov.w	lr, #1
 80022b6:	f04f 0c03 	mov.w	ip, #3
 80022ba:	9301      	str	r3, [sp, #4]
 80022bc:	e017      	b.n	80022ee <LL_GPIO_Init+0x56>
 80022be:	f8d0 8000 	ldr.w	r8, [r0]
 80022c2:	fa93 f7a3 	rbit	r7, r3
 80022c6:	fab7 f787 	clz	r7, r7
 80022ca:	fa93 f3a3 	rbit	r3, r3
 80022ce:	fab3 f383 	clz	r3, r3
 80022d2:	007f      	lsls	r7, r7, #1
 80022d4:	fa0c f707 	lsl.w	r7, ip, r7
 80022d8:	005b      	lsls	r3, r3, #1
 80022da:	ea28 0807 	bic.w	r8, r8, r7
 80022de:	409d      	lsls	r5, r3
 80022e0:	ea48 0505 	orr.w	r5, r8, r5
 80022e4:	6005      	str	r5, [r0, #0]
 80022e6:	3201      	adds	r2, #1
 80022e8:	fa34 f302 	lsrs.w	r3, r4, r2
 80022ec:	d065      	beq.n	80023ba <LL_GPIO_Init+0x122>
 80022ee:	fa0e f302 	lsl.w	r3, lr, r2
 80022f2:	4023      	ands	r3, r4
 80022f4:	d0f7      	beq.n	80022e6 <LL_GPIO_Init+0x4e>
 80022f6:	684d      	ldr	r5, [r1, #4]
 80022f8:	1e6f      	subs	r7, r5, #1
 80022fa:	2f01      	cmp	r7, #1
 80022fc:	d81f      	bhi.n	800233e <LL_GPIO_Init+0xa6>
 80022fe:	f8d0 8008 	ldr.w	r8, [r0, #8]
 8002302:	fa93 f7a3 	rbit	r7, r3
 8002306:	fab7 f787 	clz	r7, r7
 800230a:	fa93 f9a3 	rbit	r9, r3
 800230e:	688e      	ldr	r6, [r1, #8]
 8002310:	fab9 f989 	clz	r9, r9
 8002314:	007f      	lsls	r7, r7, #1
 8002316:	fa0c f707 	lsl.w	r7, ip, r7
 800231a:	ea4f 0949 	mov.w	r9, r9, lsl #1
 800231e:	ea28 0707 	bic.w	r7, r8, r7
 8002322:	fa06 f809 	lsl.w	r8, r6, r9
 8002326:	ea47 0708 	orr.w	r7, r7, r8
 800232a:	6087      	str	r7, [r0, #8]
 800232c:	6847      	ldr	r7, [r0, #4]
 800232e:	9e01      	ldr	r6, [sp, #4]
 8002330:	4037      	ands	r7, r6
 8002332:	68ce      	ldr	r6, [r1, #12]
 8002334:	fb06 f804 	mul.w	r8, r6, r4
 8002338:	ea47 0708 	orr.w	r7, r7, r8
 800233c:	6047      	str	r7, [r0, #4]
 800233e:	f8d0 800c 	ldr.w	r8, [r0, #12]
 8002342:	fa93 f7a3 	rbit	r7, r3
 8002346:	fab7 f787 	clz	r7, r7
 800234a:	fa93 f9a3 	rbit	r9, r3
 800234e:	007f      	lsls	r7, r7, #1
 8002350:	fa0c f707 	lsl.w	r7, ip, r7
 8002354:	ea28 0807 	bic.w	r8, r8, r7
 8002358:	fab9 f989 	clz	r9, r9
 800235c:	690f      	ldr	r7, [r1, #16]
 800235e:	ea4f 0949 	mov.w	r9, r9, lsl #1
 8002362:	fa07 f909 	lsl.w	r9, r7, r9
 8002366:	ea48 0709 	orr.w	r7, r8, r9
 800236a:	2d02      	cmp	r5, #2
 800236c:	60c7      	str	r7, [r0, #12]
 800236e:	d1a6      	bne.n	80022be <LL_GPIO_Init+0x26>
 8002370:	fa93 f8a3 	rbit	r8, r3
 8002374:	fab8 f888 	clz	r8, r8
 8002378:	f1b8 0f07 	cmp.w	r8, #7
 800237c:	f8d1 a014 	ldr.w	sl, [r1, #20]
 8002380:	ea4f 2713 	mov.w	r7, r3, lsr #8
 8002384:	dc1d      	bgt.n	80023c2 <LL_GPIO_Init+0x12a>
 8002386:	f8d0 8020 	ldr.w	r8, [r0, #32]
 800238a:	fa93 fba3 	rbit	fp, r3
 800238e:	fabb fb8b 	clz	fp, fp
 8002392:	fa93 f7a3 	rbit	r7, r3
 8002396:	fab7 f787 	clz	r7, r7
 800239a:	ea4f 0987 	mov.w	r9, r7, lsl #2
 800239e:	fa0a f709 	lsl.w	r7, sl, r9
 80023a2:	ea4f 0b8b 	mov.w	fp, fp, lsl #2
 80023a6:	f04f 090f 	mov.w	r9, #15
 80023aa:	fa09 f90b 	lsl.w	r9, r9, fp
 80023ae:	ea28 0809 	bic.w	r8, r8, r9
 80023b2:	ea48 0707 	orr.w	r7, r8, r7
 80023b6:	6207      	str	r7, [r0, #32]
 80023b8:	e781      	b.n	80022be <LL_GPIO_Init+0x26>
 80023ba:	2000      	movs	r0, #0
 80023bc:	b003      	add	sp, #12
 80023be:	e8bd 8ff0 	ldmia.w	sp!, {r4, r5, r6, r7, r8, r9, sl, fp, pc}
 80023c2:	f8d0 8024 	ldr.w	r8, [r0, #36]	@ 0x24
 80023c6:	fa97 f9a7 	rbit	r9, r7
 80023ca:	fab9 f989 	clz	r9, r9
 80023ce:	fa97 f7a7 	rbit	r7, r7
 80023d2:	fab7 f787 	clz	r7, r7
 80023d6:	00bf      	lsls	r7, r7, #2
 80023d8:	fa0a f707 	lsl.w	r7, sl, r7
 80023dc:	ea4f 0989 	mov.w	r9, r9, lsl #2
 80023e0:	f04f 0a0f 	mov.w	sl, #15
 80023e4:	fa0a f909 	lsl.w	r9, sl, r9
 80023e8:	ea28 0809 	bic.w	r8, r8, r9
 80023ec:	ea48 0707 	orr.w	r7, r8, r7
 80023f0:	6247      	str	r7, [r0, #36]	@ 0x24
 80023f2:	e764      	b.n	80022be <LL_GPIO_Init+0x26>

080023f4 <LL_GPIO_StructInit>:
 80023f4:	2300      	movs	r3, #0
 80023f6:	f64f 71ff 	movw	r1, #65535	@ 0xffff
 80023fa:	2203      	movs	r2, #3
 80023fc:	e9c0 1200 	strd	r1, r2, [r0]
 8002400:	e9c0 3302 	strd	r3, r3, [r0, #8]
 8002404:	e9c0 3304 	strd	r3, r3, [r0, #16]
 8002408:	4770      	bx	lr
 800240a:	bf00      	nop

0800240c <LL_RCC_DeInit>:
 800240c:	4a1f      	ldr	r2, [pc, #124]	@ (800248c <LL_RCC_DeInit+0x80>)
 800240e:	6813      	ldr	r3, [r2, #0]
 8002410:	f043 0301 	orr.w	r3, r3, #1
 8002414:	b082      	sub	sp, #8
 8002416:	6013      	str	r3, [r2, #0]
 8002418:	6813      	ldr	r3, [r2, #0]
 800241a:	079b      	lsls	r3, r3, #30
 800241c:	d5fc      	bpl.n	8002418 <LL_RCC_DeInit+0xc>
 800241e:	6813      	ldr	r3, [r2, #0]
 8002420:	f023 03f8 	bic.w	r3, r3, #248	@ 0xf8
 8002424:	f04f 31ff 	mov.w	r1, #4294967295
 8002428:	f043 0380 	orr.w	r3, r3, #128	@ 0x80
 800242c:	6013      	str	r3, [r2, #0]
 800242e:	9101      	str	r1, [sp, #4]
 8002430:	9801      	ldr	r0, [sp, #4]
 8002432:	4b17      	ldr	r3, [pc, #92]	@ (8002490 <LL_RCC_DeInit+0x84>)
 8002434:	4915      	ldr	r1, [pc, #84]	@ (800248c <LL_RCC_DeInit+0x80>)
 8002436:	4003      	ands	r3, r0
 8002438:	9301      	str	r3, [sp, #4]
 800243a:	9b01      	ldr	r3, [sp, #4]
 800243c:	6053      	str	r3, [r2, #4]
 800243e:	684b      	ldr	r3, [r1, #4]
 8002440:	f013 0f0c 	tst.w	r3, #12
 8002444:	d1fb      	bne.n	800243e <LL_RCC_DeInit+0x32>
 8002446:	680b      	ldr	r3, [r1, #0]
 8002448:	9301      	str	r3, [sp, #4]
 800244a:	9a01      	ldr	r2, [sp, #4]
 800244c:	4b0f      	ldr	r3, [pc, #60]	@ (800248c <LL_RCC_DeInit+0x80>)
 800244e:	f022 7284 	bic.w	r2, r2, #17301504	@ 0x1080000
 8002452:	f422 3280 	bic.w	r2, r2, #65536	@ 0x10000
 8002456:	9201      	str	r2, [sp, #4]
 8002458:	9a01      	ldr	r2, [sp, #4]
 800245a:	600a      	str	r2, [r1, #0]
 800245c:	6818      	ldr	r0, [r3, #0]
 800245e:	f010 7000 	ands.w	r0, r0, #33554432	@ 0x2000000
 8002462:	d1fb      	bne.n	800245c <LL_RCC_DeInit+0x50>
 8002464:	681a      	ldr	r2, [r3, #0]
 8002466:	f44f 011f 	mov.w	r1, #10420224	@ 0x9f0000
 800246a:	f422 2280 	bic.w	r2, r2, #262144	@ 0x40000
 800246e:	601a      	str	r2, [r3, #0]
 8002470:	6058      	str	r0, [r3, #4]
 8002472:	62d8      	str	r0, [r3, #44]	@ 0x2c
 8002474:	6318      	str	r0, [r3, #48]	@ 0x30
 8002476:	9101      	str	r1, [sp, #4]
 8002478:	9a01      	ldr	r2, [sp, #4]
 800247a:	609a      	str	r2, [r3, #8]
 800247c:	6098      	str	r0, [r3, #8]
 800247e:	6a5a      	ldr	r2, [r3, #36]	@ 0x24
 8002480:	f042 7280 	orr.w	r2, r2, #16777216	@ 0x1000000
 8002484:	625a      	str	r2, [r3, #36]	@ 0x24
 8002486:	b002      	add	sp, #8
 8002488:	4770      	bx	lr
 800248a:	bf00      	nop
 800248c:	40021000 	.word	0x40021000
 8002490:	f8ffc00c 	.word	0xf8ffc00c

08002494 <LL_RCC_GetSystemClocksFreq>:
 8002494:	4a1b      	ldr	r2, [pc, #108]	@ (8002504 <LL_RCC_GetSystemClocksFreq+0x70>)
 8002496:	6853      	ldr	r3, [r2, #4]
 8002498:	f003 030c 	and.w	r3, r3, #12
 800249c:	2b08      	cmp	r3, #8
 800249e:	b410      	push	{r4}
 80024a0:	d01a      	beq.n	80024d8 <LL_RCC_GetSystemClocksFreq+0x44>
 80024a2:	4b19      	ldr	r3, [pc, #100]	@ (8002508 <LL_RCC_GetSystemClocksFreq+0x74>)
 80024a4:	4a17      	ldr	r2, [pc, #92]	@ (8002504 <LL_RCC_GetSystemClocksFreq+0x70>)
 80024a6:	6003      	str	r3, [r0, #0]
 80024a8:	6851      	ldr	r1, [r2, #4]
 80024aa:	4c18      	ldr	r4, [pc, #96]	@ (800250c <LL_RCC_GetSystemClocksFreq+0x78>)
 80024ac:	f3c1 1103 	ubfx	r1, r1, #4, #4
 80024b0:	5c61      	ldrb	r1, [r4, r1]
 80024b2:	4c17      	ldr	r4, [pc, #92]	@ (8002510 <LL_RCC_GetSystemClocksFreq+0x7c>)
 80024b4:	40cb      	lsrs	r3, r1
 80024b6:	6043      	str	r3, [r0, #4]
 80024b8:	6851      	ldr	r1, [r2, #4]
 80024ba:	f3c1 2102 	ubfx	r1, r1, #8, #3
 80024be:	5c61      	ldrb	r1, [r4, r1]
 80024c0:	fa23 f101 	lsr.w	r1, r3, r1
 80024c4:	6081      	str	r1, [r0, #8]
 80024c6:	6852      	ldr	r2, [r2, #4]
 80024c8:	f3c2 22c2 	ubfx	r2, r2, #11, #3
 80024cc:	5ca2      	ldrb	r2, [r4, r2]
 80024ce:	f85d 4b04 	ldr.w	r4, [sp], #4
 80024d2:	40d3      	lsrs	r3, r2
 80024d4:	60c3      	str	r3, [r0, #12]
 80024d6:	4770      	bx	lr
 80024d8:	6853      	ldr	r3, [r2, #4]
 80024da:	6ad1      	ldr	r1, [r2, #44]	@ 0x2c
 80024dc:	6852      	ldr	r2, [r2, #4]
 80024de:	f44f 1370 	mov.w	r3, #3932160	@ 0x3c0000
 80024e2:	fa93 f3a3 	rbit	r3, r3
 80024e6:	fab3 f383 	clz	r3, r3
 80024ea:	f402 1270 	and.w	r2, r2, #3932160	@ 0x3c0000
 80024ee:	40da      	lsrs	r2, r3
 80024f0:	f001 010f 	and.w	r1, r1, #15
 80024f4:	3202      	adds	r2, #2
 80024f6:	4b04      	ldr	r3, [pc, #16]	@ (8002508 <LL_RCC_GetSystemClocksFreq+0x74>)
 80024f8:	3101      	adds	r1, #1
 80024fa:	fbb3 f3f1 	udiv	r3, r3, r1
 80024fe:	fb02 f303 	mul.w	r3, r2, r3
 8002502:	e7cf      	b.n	80024a4 <LL_RCC_GetSystemClocksFreq+0x10>
 8002504:	40021000 	.word	0x40021000
 8002508:	007a1200 	.word	0x007a1200
 800250c:	0800316c 	.word	0x0800316c
 8002510:	0800317c 	.word	0x0800317c

08002514 <LL_RCC_GetUSARTClockFreq>:
 8002514:	2800      	cmp	r0, #0
 8002516:	d131      	bne.n	800257c <LL_RCC_GetUSARTClockFreq+0x68>
 8002518:	4a53      	ldr	r2, [pc, #332]	@ (8002668 <LL_RCC_GetUSARTClockFreq+0x154>)
 800251a:	6b13      	ldr	r3, [r2, #48]	@ 0x30
 800251c:	f003 0303 	and.w	r3, r3, #3
 8002520:	2b02      	cmp	r3, #2
 8002522:	d06e      	beq.n	8002602 <LL_RCC_GetUSARTClockFreq+0xee>
 8002524:	2b03      	cmp	r3, #3
 8002526:	d065      	beq.n	80025f4 <LL_RCC_GetUSARTClockFreq+0xe0>
 8002528:	2b01      	cmp	r3, #1
 800252a:	6853      	ldr	r3, [r2, #4]
 800252c:	f003 030c 	and.w	r3, r3, #12
 8002530:	d05c      	beq.n	80025ec <LL_RCC_GetUSARTClockFreq+0xd8>
 8002532:	2b08      	cmp	r3, #8
 8002534:	f040 8094 	bne.w	8002660 <LL_RCC_GetUSARTClockFreq+0x14c>
 8002538:	6853      	ldr	r3, [r2, #4]
 800253a:	6ad1      	ldr	r1, [r2, #44]	@ 0x2c
 800253c:	6853      	ldr	r3, [r2, #4]
 800253e:	f44f 1070 	mov.w	r0, #3932160	@ 0x3c0000
 8002542:	fa90 f2a0 	rbit	r2, r0
 8002546:	fab2 f282 	clz	r2, r2
 800254a:	4003      	ands	r3, r0
 800254c:	40d3      	lsrs	r3, r2
 800254e:	3302      	adds	r3, #2
 8002550:	f001 020f 	and.w	r2, r1, #15
 8002554:	4845      	ldr	r0, [pc, #276]	@ (800266c <LL_RCC_GetUSARTClockFreq+0x158>)
 8002556:	3201      	adds	r2, #1
 8002558:	fbb0 f0f2 	udiv	r0, r0, r2
 800255c:	fb03 f000 	mul.w	r0, r3, r0
 8002560:	4b41      	ldr	r3, [pc, #260]	@ (8002668 <LL_RCC_GetUSARTClockFreq+0x154>)
 8002562:	4943      	ldr	r1, [pc, #268]	@ (8002670 <LL_RCC_GetUSARTClockFreq+0x15c>)
 8002564:	685a      	ldr	r2, [r3, #4]
 8002566:	685b      	ldr	r3, [r3, #4]
 8002568:	f3c2 1203 	ubfx	r2, r2, #4, #4
 800256c:	f3c3 23c2 	ubfx	r3, r3, #11, #3
 8002570:	5c89      	ldrb	r1, [r1, r2]
 8002572:	4a40      	ldr	r2, [pc, #256]	@ (8002674 <LL_RCC_GetUSARTClockFreq+0x160>)
 8002574:	5cd3      	ldrb	r3, [r2, r3]
 8002576:	40c8      	lsrs	r0, r1
 8002578:	40d8      	lsrs	r0, r3
 800257a:	4770      	bx	lr
 800257c:	2810      	cmp	r0, #16
 800257e:	d021      	beq.n	80025c4 <LL_RCC_GetUSARTClockFreq+0xb0>
 8002580:	2812      	cmp	r0, #18
 8002582:	d16f      	bne.n	8002664 <LL_RCC_GetUSARTClockFreq+0x150>
 8002584:	4a38      	ldr	r2, [pc, #224]	@ (8002668 <LL_RCC_GetUSARTClockFreq+0x154>)
 8002586:	493c      	ldr	r1, [pc, #240]	@ (8002678 <LL_RCC_GetUSARTClockFreq+0x164>)
 8002588:	6b13      	ldr	r3, [r2, #48]	@ 0x30
 800258a:	f403 2340 	and.w	r3, r3, #786432	@ 0xc0000
 800258e:	f043 5390 	orr.w	r3, r3, #301989888	@ 0x12000000
 8002592:	428b      	cmp	r3, r1
 8002594:	d035      	beq.n	8002602 <LL_RCC_GetUSARTClockFreq+0xee>
 8002596:	f501 2180 	add.w	r1, r1, #262144	@ 0x40000
 800259a:	428b      	cmp	r3, r1
 800259c:	d02a      	beq.n	80025f4 <LL_RCC_GetUSARTClockFreq+0xe0>
 800259e:	f5a1 2100 	sub.w	r1, r1, #524288	@ 0x80000
 80025a2:	428b      	cmp	r3, r1
 80025a4:	6853      	ldr	r3, [r2, #4]
 80025a6:	f003 030c 	and.w	r3, r3, #12
 80025aa:	d01f      	beq.n	80025ec <LL_RCC_GetUSARTClockFreq+0xd8>
 80025ac:	2b08      	cmp	r3, #8
 80025ae:	d042      	beq.n	8002636 <LL_RCC_GetUSARTClockFreq+0x122>
 80025b0:	482e      	ldr	r0, [pc, #184]	@ (800266c <LL_RCC_GetUSARTClockFreq+0x158>)
 80025b2:	4b2d      	ldr	r3, [pc, #180]	@ (8002668 <LL_RCC_GetUSARTClockFreq+0x154>)
 80025b4:	492e      	ldr	r1, [pc, #184]	@ (8002670 <LL_RCC_GetUSARTClockFreq+0x15c>)
 80025b6:	685a      	ldr	r2, [r3, #4]
 80025b8:	685b      	ldr	r3, [r3, #4]
 80025ba:	f3c2 1203 	ubfx	r2, r2, #4, #4
 80025be:	f3c3 2302 	ubfx	r3, r3, #8, #3
 80025c2:	e7d5      	b.n	8002570 <LL_RCC_GetUSARTClockFreq+0x5c>
 80025c4:	4a28      	ldr	r2, [pc, #160]	@ (8002668 <LL_RCC_GetUSARTClockFreq+0x154>)
 80025c6:	492d      	ldr	r1, [pc, #180]	@ (800267c <LL_RCC_GetUSARTClockFreq+0x168>)
 80025c8:	6b13      	ldr	r3, [r2, #48]	@ 0x30
 80025ca:	f403 3340 	and.w	r3, r3, #196608	@ 0x30000
 80025ce:	f043 5380 	orr.w	r3, r3, #268435456	@ 0x10000000
 80025d2:	428b      	cmp	r3, r1
 80025d4:	d015      	beq.n	8002602 <LL_RCC_GetUSARTClockFreq+0xee>
 80025d6:	f501 3180 	add.w	r1, r1, #65536	@ 0x10000
 80025da:	428b      	cmp	r3, r1
 80025dc:	d00a      	beq.n	80025f4 <LL_RCC_GetUSARTClockFreq+0xe0>
 80025de:	f5a1 3100 	sub.w	r1, r1, #131072	@ 0x20000
 80025e2:	428b      	cmp	r3, r1
 80025e4:	6853      	ldr	r3, [r2, #4]
 80025e6:	f003 030c 	and.w	r3, r3, #12
 80025ea:	d1df      	bne.n	80025ac <LL_RCC_GetUSARTClockFreq+0x98>
 80025ec:	2b08      	cmp	r3, #8
 80025ee:	d00d      	beq.n	800260c <LL_RCC_GetUSARTClockFreq+0xf8>
 80025f0:	481e      	ldr	r0, [pc, #120]	@ (800266c <LL_RCC_GetUSARTClockFreq+0x158>)
 80025f2:	4770      	bx	lr
 80025f4:	6810      	ldr	r0, [r2, #0]
 80025f6:	4b1d      	ldr	r3, [pc, #116]	@ (800266c <LL_RCC_GetUSARTClockFreq+0x158>)
 80025f8:	f010 0002 	ands.w	r0, r0, #2
 80025fc:	bf18      	it	ne
 80025fe:	4618      	movne	r0, r3
 8002600:	4770      	bx	lr
 8002602:	6a10      	ldr	r0, [r2, #32]
 8002604:	f3c0 0040 	ubfx	r0, r0, #1, #1
 8002608:	03c0      	lsls	r0, r0, #15
 800260a:	4770      	bx	lr
 800260c:	6853      	ldr	r3, [r2, #4]
 800260e:	6ad1      	ldr	r1, [r2, #44]	@ 0x2c
 8002610:	6853      	ldr	r3, [r2, #4]
 8002612:	f44f 1070 	mov.w	r0, #3932160	@ 0x3c0000
 8002616:	fa90 f2a0 	rbit	r2, r0
 800261a:	fab2 f282 	clz	r2, r2
 800261e:	4003      	ands	r3, r0
 8002620:	40d3      	lsrs	r3, r2
 8002622:	3302      	adds	r3, #2
 8002624:	f001 020f 	and.w	r2, r1, #15
 8002628:	3201      	adds	r2, #1
 800262a:	4810      	ldr	r0, [pc, #64]	@ (800266c <LL_RCC_GetUSARTClockFreq+0x158>)
 800262c:	fbb0 f0f2 	udiv	r0, r0, r2
 8002630:	fb03 f000 	mul.w	r0, r3, r0
 8002634:	4770      	bx	lr
 8002636:	6853      	ldr	r3, [r2, #4]
 8002638:	6ad1      	ldr	r1, [r2, #44]	@ 0x2c
 800263a:	6853      	ldr	r3, [r2, #4]
 800263c:	f44f 1070 	mov.w	r0, #3932160	@ 0x3c0000
 8002640:	fa90 f2a0 	rbit	r2, r0
 8002644:	fab2 f282 	clz	r2, r2
 8002648:	4003      	ands	r3, r0
 800264a:	40d3      	lsrs	r3, r2
 800264c:	3302      	adds	r3, #2
 800264e:	f001 020f 	and.w	r2, r1, #15
 8002652:	4806      	ldr	r0, [pc, #24]	@ (800266c <LL_RCC_GetUSARTClockFreq+0x158>)
 8002654:	3201      	adds	r2, #1
 8002656:	fbb0 f0f2 	udiv	r0, r0, r2
 800265a:	fb03 f000 	mul.w	r0, r3, r0
 800265e:	e7a8      	b.n	80025b2 <LL_RCC_GetUSARTClockFreq+0x9e>
 8002660:	4802      	ldr	r0, [pc, #8]	@ (800266c <LL_RCC_GetUSARTClockFreq+0x158>)
 8002662:	e77d      	b.n	8002560 <LL_RCC_GetUSARTClockFreq+0x4c>
 8002664:	2000      	movs	r0, #0
 8002666:	4770      	bx	lr
 8002668:	40021000 	.word	0x40021000
 800266c:	007a1200 	.word	0x007a1200
 8002670:	0800316c 	.word	0x0800316c
 8002674:	0800317c 	.word	0x0800317c
 8002678:	12080000 	.word	0x12080000
 800267c:	10020000 	.word	0x10020000

08002680 <LL_RCC_GetUARTClockFreq>:
 8002680:	f5b0 1f40 	cmp.w	r0, #3145728	@ 0x300000
 8002684:	d029      	beq.n	80026da <LL_RCC_GetUARTClockFreq+0x5a>
 8002686:	f5b0 0f40 	cmp.w	r0, #12582912	@ 0xc00000
 800268a:	d124      	bne.n	80026d6 <LL_RCC_GetUARTClockFreq+0x56>
 800268c:	4a3a      	ldr	r2, [pc, #232]	@ (8002778 <LL_RCC_GetUARTClockFreq+0xf8>)
 800268e:	493b      	ldr	r1, [pc, #236]	@ (800277c <LL_RCC_GetUARTClockFreq+0xfc>)
 8002690:	6b13      	ldr	r3, [r2, #48]	@ 0x30
 8002692:	f403 0340 	and.w	r3, r3, #12582912	@ 0xc00000
 8002696:	f443 4340 	orr.w	r3, r3, #49152	@ 0xc000
 800269a:	428b      	cmp	r3, r1
 800269c:	d064      	beq.n	8002768 <LL_RCC_GetUARTClockFreq+0xe8>
 800269e:	f501 0180 	add.w	r1, r1, #4194304	@ 0x400000
 80026a2:	428b      	cmp	r3, r1
 80026a4:	d059      	beq.n	800275a <LL_RCC_GetUARTClockFreq+0xda>
 80026a6:	f5a1 0100 	sub.w	r1, r1, #8388608	@ 0x800000
 80026aa:	428b      	cmp	r3, r1
 80026ac:	6853      	ldr	r3, [r2, #4]
 80026ae:	f003 030c 	and.w	r3, r3, #12
 80026b2:	d026      	beq.n	8002702 <LL_RCC_GetUARTClockFreq+0x82>
 80026b4:	2b08      	cmp	r3, #8
 80026b6:	d03b      	beq.n	8002730 <LL_RCC_GetUARTClockFreq+0xb0>
 80026b8:	4831      	ldr	r0, [pc, #196]	@ (8002780 <LL_RCC_GetUARTClockFreq+0x100>)
 80026ba:	4b2f      	ldr	r3, [pc, #188]	@ (8002778 <LL_RCC_GetUARTClockFreq+0xf8>)
 80026bc:	4931      	ldr	r1, [pc, #196]	@ (8002784 <LL_RCC_GetUARTClockFreq+0x104>)
 80026be:	685a      	ldr	r2, [r3, #4]
 80026c0:	685b      	ldr	r3, [r3, #4]
 80026c2:	f3c2 1203 	ubfx	r2, r2, #4, #4
 80026c6:	f3c3 2302 	ubfx	r3, r3, #8, #3
 80026ca:	5c89      	ldrb	r1, [r1, r2]
 80026cc:	4a2e      	ldr	r2, [pc, #184]	@ (8002788 <LL_RCC_GetUARTClockFreq+0x108>)
 80026ce:	5cd3      	ldrb	r3, [r2, r3]
 80026d0:	40c8      	lsrs	r0, r1
 80026d2:	40d8      	lsrs	r0, r3
 80026d4:	4770      	bx	lr
 80026d6:	2000      	movs	r0, #0
 80026d8:	4770      	bx	lr
 80026da:	4a27      	ldr	r2, [pc, #156]	@ (8002778 <LL_RCC_GetUARTClockFreq+0xf8>)
 80026dc:	492b      	ldr	r1, [pc, #172]	@ (800278c <LL_RCC_GetUARTClockFreq+0x10c>)
 80026de:	6b13      	ldr	r3, [r2, #48]	@ 0x30
 80026e0:	f403 1340 	and.w	r3, r3, #3145728	@ 0x300000
 80026e4:	f443 5340 	orr.w	r3, r3, #12288	@ 0x3000
 80026e8:	428b      	cmp	r3, r1
 80026ea:	d03d      	beq.n	8002768 <LL_RCC_GetUARTClockFreq+0xe8>
 80026ec:	f501 1180 	add.w	r1, r1, #1048576	@ 0x100000
 80026f0:	428b      	cmp	r3, r1
 80026f2:	d032      	beq.n	800275a <LL_RCC_GetUARTClockFreq+0xda>
 80026f4:	f5a1 1100 	sub.w	r1, r1, #2097152	@ 0x200000
 80026f8:	428b      	cmp	r3, r1
 80026fa:	6853      	ldr	r3, [r2, #4]
 80026fc:	f003 030c 	and.w	r3, r3, #12
 8002700:	d1d8      	bne.n	80026b4 <LL_RCC_GetUARTClockFreq+0x34>
 8002702:	2b08      	cmp	r3, #8
 8002704:	d135      	bne.n	8002772 <LL_RCC_GetUARTClockFreq+0xf2>
 8002706:	6853      	ldr	r3, [r2, #4]
 8002708:	6ad1      	ldr	r1, [r2, #44]	@ 0x2c
 800270a:	6853      	ldr	r3, [r2, #4]
 800270c:	f44f 1070 	mov.w	r0, #3932160	@ 0x3c0000
 8002710:	fa90 f2a0 	rbit	r2, r0
 8002714:	fab2 f282 	clz	r2, r2
 8002718:	4003      	ands	r3, r0
 800271a:	40d3      	lsrs	r3, r2
 800271c:	3302      	adds	r3, #2
 800271e:	f001 020f 	and.w	r2, r1, #15
 8002722:	3201      	adds	r2, #1
 8002724:	4816      	ldr	r0, [pc, #88]	@ (8002780 <LL_RCC_GetUARTClockFreq+0x100>)
 8002726:	fbb0 f0f2 	udiv	r0, r0, r2
 800272a:	fb03 f000 	mul.w	r0, r3, r0
 800272e:	4770      	bx	lr
 8002730:	6853      	ldr	r3, [r2, #4]
 8002732:	6ad1      	ldr	r1, [r2, #44]	@ 0x2c
 8002734:	6853      	ldr	r3, [r2, #4]
 8002736:	f44f 1070 	mov.w	r0, #3932160	@ 0x3c0000
 800273a:	fa90 f2a0 	rbit	r2, r0
 800273e:	fab2 f282 	clz	r2, r2
 8002742:	4003      	ands	r3, r0
 8002744:	40d3      	lsrs	r3, r2
 8002746:	3302      	adds	r3, #2
 8002748:	f001 020f 	and.w	r2, r1, #15
 800274c:	480c      	ldr	r0, [pc, #48]	@ (8002780 <LL_RCC_GetUARTClockFreq+0x100>)
 800274e:	3201      	adds	r2, #1
 8002750:	fbb0 f0f2 	udiv	r0, r0, r2
 8002754:	fb03 f000 	mul.w	r0, r3, r0
 8002758:	e7af      	b.n	80026ba <LL_RCC_GetUARTClockFreq+0x3a>
 800275a:	6810      	ldr	r0, [r2, #0]
 800275c:	4b08      	ldr	r3, [pc, #32]	@ (8002780 <LL_RCC_GetUARTClockFreq+0x100>)
 800275e:	f010 0002 	ands.w	r0, r0, #2
 8002762:	bf18      	it	ne
 8002764:	4618      	movne	r0, r3
 8002766:	4770      	bx	lr
 8002768:	6a10      	ldr	r0, [r2, #32]
 800276a:	f3c0 0040 	ubfx	r0, r0, #1, #1
 800276e:	03c0      	lsls	r0, r0, #15
 8002770:	4770      	bx	lr
 8002772:	4803      	ldr	r0, [pc, #12]	@ (8002780 <LL_RCC_GetUARTClockFreq+0x100>)
 8002774:	4770      	bx	lr
 8002776:	bf00      	nop
 8002778:	40021000 	.word	0x40021000
 800277c:	0080c000 	.word	0x0080c000
 8002780:	007a1200 	.word	0x007a1200
 8002784:	0800316c 	.word	0x0800316c
 8002788:	0800317c 	.word	0x0800317c
 800278c:	00203000 	.word	0x00203000

08002790 <LL_RCC_GetI2CClockFreq>:
 8002790:	2810      	cmp	r0, #16
 8002792:	d01c      	beq.n	80027ce <LL_RCC_GetI2CClockFreq+0x3e>
 8002794:	2820      	cmp	r0, #32
 8002796:	d10b      	bne.n	80027b0 <LL_RCC_GetI2CClockFreq+0x20>
 8002798:	4a1c      	ldr	r2, [pc, #112]	@ (800280c <LL_RCC_GetI2CClockFreq+0x7c>)
 800279a:	6b13      	ldr	r3, [r2, #48]	@ 0x30
 800279c:	f003 0320 	and.w	r3, r3, #32
 80027a0:	b973      	cbnz	r3, 80027c0 <LL_RCC_GetI2CClockFreq+0x30>
 80027a2:	6810      	ldr	r0, [r2, #0]
 80027a4:	4b1a      	ldr	r3, [pc, #104]	@ (8002810 <LL_RCC_GetI2CClockFreq+0x80>)
 80027a6:	f010 0002 	ands.w	r0, r0, #2
 80027aa:	bf18      	it	ne
 80027ac:	4618      	movne	r0, r3
 80027ae:	4770      	bx	lr
 80027b0:	2840      	cmp	r0, #64	@ 0x40
 80027b2:	d128      	bne.n	8002806 <LL_RCC_GetI2CClockFreq+0x76>
 80027b4:	4a15      	ldr	r2, [pc, #84]	@ (800280c <LL_RCC_GetI2CClockFreq+0x7c>)
 80027b6:	6b13      	ldr	r3, [r2, #48]	@ 0x30
 80027b8:	f003 0340 	and.w	r3, r3, #64	@ 0x40
 80027bc:	2b00      	cmp	r3, #0
 80027be:	d0f0      	beq.n	80027a2 <LL_RCC_GetI2CClockFreq+0x12>
 80027c0:	6853      	ldr	r3, [r2, #4]
 80027c2:	f003 030c 	and.w	r3, r3, #12
 80027c6:	2b08      	cmp	r3, #8
 80027c8:	d008      	beq.n	80027dc <LL_RCC_GetI2CClockFreq+0x4c>
 80027ca:	4811      	ldr	r0, [pc, #68]	@ (8002810 <LL_RCC_GetI2CClockFreq+0x80>)
 80027cc:	4770      	bx	lr
 80027ce:	4a0f      	ldr	r2, [pc, #60]	@ (800280c <LL_RCC_GetI2CClockFreq+0x7c>)
 80027d0:	6b13      	ldr	r3, [r2, #48]	@ 0x30
 80027d2:	f003 0310 	and.w	r3, r3, #16
 80027d6:	2b00      	cmp	r3, #0
 80027d8:	d0e3      	beq.n	80027a2 <LL_RCC_GetI2CClockFreq+0x12>
 80027da:	e7f1      	b.n	80027c0 <LL_RCC_GetI2CClockFreq+0x30>
 80027dc:	6853      	ldr	r3, [r2, #4]
 80027de:	6ad1      	ldr	r1, [r2, #44]	@ 0x2c
 80027e0:	6853      	ldr	r3, [r2, #4]
 80027e2:	f44f 1070 	mov.w	r0, #3932160	@ 0x3c0000
 80027e6:	fa90 f2a0 	rbit	r2, r0
 80027ea:	fab2 f282 	clz	r2, r2
 80027ee:	4003      	ands	r3, r0
 80027f0:	40d3      	lsrs	r3, r2
 80027f2:	3302      	adds	r3, #2
 80027f4:	f001 020f 	and.w	r2, r1, #15
 80027f8:	3201      	adds	r2, #1
 80027fa:	4805      	ldr	r0, [pc, #20]	@ (8002810 <LL_RCC_GetI2CClockFreq+0x80>)
 80027fc:	fbb0 f0f2 	udiv	r0, r0, r2
 8002800:	fb03 f000 	mul.w	r0, r3, r0
 8002804:	4770      	bx	lr
 8002806:	2000      	movs	r0, #0
 8002808:	4770      	bx	lr
 800280a:	bf00      	nop
 800280c:	40021000 	.word	0x40021000
 8002810:	007a1200 	.word	0x007a1200

08002814 <LL_RCC_GetI2SClockFreq>:
 8002814:	4a13      	ldr	r2, [pc, #76]	@ (8002864 <LL_RCC_GetI2SClockFreq+0x50>)
 8002816:	6853      	ldr	r3, [r2, #4]
 8002818:	4018      	ands	r0, r3
 800281a:	d007      	beq.n	800282c <LL_RCC_GetI2SClockFreq+0x18>
 800281c:	4b12      	ldr	r3, [pc, #72]	@ (8002868 <LL_RCC_GetI2SClockFreq+0x54>)
 800281e:	f5b0 0f00 	cmp.w	r0, #8388608	@ 0x800000
 8002822:	bf0c      	ite	eq
 8002824:	4618      	moveq	r0, r3
 8002826:	f04f 30ff 	movne.w	r0, #4294967295
 800282a:	4770      	bx	lr
 800282c:	6853      	ldr	r3, [r2, #4]
 800282e:	f003 030c 	and.w	r3, r3, #12
 8002832:	2b08      	cmp	r3, #8
 8002834:	d001      	beq.n	800283a <LL_RCC_GetI2SClockFreq+0x26>
 8002836:	480c      	ldr	r0, [pc, #48]	@ (8002868 <LL_RCC_GetI2SClockFreq+0x54>)
 8002838:	4770      	bx	lr
 800283a:	6853      	ldr	r3, [r2, #4]
 800283c:	6ad1      	ldr	r1, [r2, #44]	@ 0x2c
 800283e:	6853      	ldr	r3, [r2, #4]
 8002840:	f44f 1070 	mov.w	r0, #3932160	@ 0x3c0000
 8002844:	fa90 f2a0 	rbit	r2, r0
 8002848:	fab2 f282 	clz	r2, r2
 800284c:	4003      	ands	r3, r0
 800284e:	40d3      	lsrs	r3, r2
 8002850:	3302      	adds	r3, #2
 8002852:	f001 020f 	and.w	r2, r1, #15
 8002856:	3201      	adds	r2, #1
 8002858:	4803      	ldr	r0, [pc, #12]	@ (8002868 <LL_RCC_GetI2SClockFreq+0x54>)
 800285a:	fbb0 f0f2 	udiv	r0, r0, r2
 800285e:	fb03 f000 	mul.w	r0, r3, r0
 8002862:	4770      	bx	lr
 8002864:	40021000 	.word	0x40021000
 8002868:	007a1200 	.word	0x007a1200

0800286c <LL_RCC_GetUSBClockFreq>:
 800286c:	4b1d      	ldr	r3, [pc, #116]	@ (80028e4 <LL_RCC_GetUSBClockFreq+0x78>)
 800286e:	685a      	ldr	r2, [r3, #4]
 8002870:	4010      	ands	r0, r2
 8002872:	f5b0 0f80 	cmp.w	r0, #4194304	@ 0x400000
 8002876:	6818      	ldr	r0, [r3, #0]
 8002878:	d01b      	beq.n	80028b2 <LL_RCC_GetUSBClockFreq+0x46>
 800287a:	f010 7000 	ands.w	r0, r0, #33554432	@ 0x2000000
 800287e:	d017      	beq.n	80028b0 <LL_RCC_GetUSBClockFreq+0x44>
 8002880:	685a      	ldr	r2, [r3, #4]
 8002882:	6ada      	ldr	r2, [r3, #44]	@ 0x2c
 8002884:	685b      	ldr	r3, [r3, #4]
 8002886:	f44f 1170 	mov.w	r1, #3932160	@ 0x3c0000
 800288a:	fa91 f1a1 	rbit	r1, r1
 800288e:	fab1 f181 	clz	r1, r1
 8002892:	f403 1370 	and.w	r3, r3, #3932160	@ 0x3c0000
 8002896:	40cb      	lsrs	r3, r1
 8002898:	f002 020f 	and.w	r2, r2, #15
 800289c:	3302      	adds	r3, #2
 800289e:	4812      	ldr	r0, [pc, #72]	@ (80028e8 <LL_RCC_GetUSBClockFreq+0x7c>)
 80028a0:	3201      	adds	r2, #1
 80028a2:	fbb0 f0f2 	udiv	r0, r0, r2
 80028a6:	fb03 f000 	mul.w	r0, r3, r0
 80028aa:	eb00 0040 	add.w	r0, r0, r0, lsl #1
 80028ae:	0840      	lsrs	r0, r0, #1
 80028b0:	4770      	bx	lr
 80028b2:	f010 7000 	ands.w	r0, r0, #33554432	@ 0x2000000
 80028b6:	d0fb      	beq.n	80028b0 <LL_RCC_GetUSBClockFreq+0x44>
 80028b8:	685a      	ldr	r2, [r3, #4]
 80028ba:	6ada      	ldr	r2, [r3, #44]	@ 0x2c
 80028bc:	685b      	ldr	r3, [r3, #4]
 80028be:	f44f 1170 	mov.w	r1, #3932160	@ 0x3c0000
 80028c2:	fa91 f1a1 	rbit	r1, r1
 80028c6:	fab1 f181 	clz	r1, r1
 80028ca:	f403 1370 	and.w	r3, r3, #3932160	@ 0x3c0000
 80028ce:	40cb      	lsrs	r3, r1
 80028d0:	3302      	adds	r3, #2
 80028d2:	f002 020f 	and.w	r2, r2, #15
 80028d6:	3201      	adds	r2, #1
 80028d8:	4803      	ldr	r0, [pc, #12]	@ (80028e8 <LL_RCC_GetUSBClockFreq+0x7c>)
 80028da:	fbb0 f0f2 	udiv	r0, r0, r2
 80028de:	fb03 f000 	mul.w	r0, r3, r0
 80028e2:	4770      	bx	lr
 80028e4:	40021000 	.word	0x40021000
 80028e8:	007a1200 	.word	0x007a1200

080028ec <LL_RCC_GetADCClockFreq>:
 80028ec:	4a31      	ldr	r2, [pc, #196]	@ (80029b4 <LL_RCC_GetADCClockFreq+0xc8>)
 80028ee:	6ad3      	ldr	r3, [r2, #44]	@ 0x2c
 80028f0:	4003      	ands	r3, r0
 80028f2:	b29b      	uxth	r3, r3
 80028f4:	b96b      	cbnz	r3, 8002912 <LL_RCC_GetADCClockFreq+0x26>
 80028f6:	6853      	ldr	r3, [r2, #4]
 80028f8:	f003 030c 	and.w	r3, r3, #12
 80028fc:	2b08      	cmp	r3, #8
 80028fe:	d043      	beq.n	8002988 <LL_RCC_GetADCClockFreq+0x9c>
 8002900:	482d      	ldr	r0, [pc, #180]	@ (80029b8 <LL_RCC_GetADCClockFreq+0xcc>)
 8002902:	4b2c      	ldr	r3, [pc, #176]	@ (80029b4 <LL_RCC_GetADCClockFreq+0xc8>)
 8002904:	4a2d      	ldr	r2, [pc, #180]	@ (80029bc <LL_RCC_GetADCClockFreq+0xd0>)
 8002906:	685b      	ldr	r3, [r3, #4]
 8002908:	f3c3 1303 	ubfx	r3, r3, #4, #4
 800290c:	5cd3      	ldrb	r3, [r2, r3]
 800290e:	40d8      	lsrs	r0, r3
 8002910:	4770      	bx	lr
 8002912:	6851      	ldr	r1, [r2, #4]
 8002914:	f001 010c 	and.w	r1, r1, #12
 8002918:	2908      	cmp	r1, #8
 800291a:	b410      	push	{r4}
 800291c:	d01e      	beq.n	800295c <LL_RCC_GetADCClockFreq+0x70>
 800291e:	4a26      	ldr	r2, [pc, #152]	@ (80029b8 <LL_RCC_GetADCClockFreq+0xcc>)
 8002920:	4924      	ldr	r1, [pc, #144]	@ (80029b4 <LL_RCC_GetADCClockFreq+0xc8>)
 8002922:	684c      	ldr	r4, [r1, #4]
 8002924:	6849      	ldr	r1, [r1, #4]
 8002926:	fa90 f0a0 	rbit	r0, r0
 800292a:	fab0 f080 	clz	r0, r0
 800292e:	f3c4 1c03 	ubfx	ip, r4, #4, #4
 8002932:	40c3      	lsrs	r3, r0
 8002934:	4821      	ldr	r0, [pc, #132]	@ (80029bc <LL_RCC_GetADCClockFreq+0xd0>)
 8002936:	4c22      	ldr	r4, [pc, #136]	@ (80029c0 <LL_RCC_GetADCClockFreq+0xd4>)
 8002938:	f810 000c 	ldrb.w	r0, [r0, ip]
 800293c:	f3c1 21c2 	ubfx	r1, r1, #11, #3
 8002940:	fa22 f000 	lsr.w	r0, r2, r0
 8002944:	5c61      	ldrb	r1, [r4, r1]
 8002946:	4a1f      	ldr	r2, [pc, #124]	@ (80029c4 <LL_RCC_GetADCClockFreq+0xd8>)
 8002948:	f85d 4b04 	ldr.w	r4, [sp], #4
 800294c:	f003 030f 	and.w	r3, r3, #15
 8002950:	40c8      	lsrs	r0, r1
 8002952:	f832 3013 	ldrh.w	r3, [r2, r3, lsl #1]
 8002956:	fbb0 f0f3 	udiv	r0, r0, r3
 800295a:	4770      	bx	lr
 800295c:	6851      	ldr	r1, [r2, #4]
 800295e:	6ad4      	ldr	r4, [r2, #44]	@ 0x2c
 8002960:	6851      	ldr	r1, [r2, #4]
 8002962:	f44f 1270 	mov.w	r2, #3932160	@ 0x3c0000
 8002966:	fa92 f2a2 	rbit	r2, r2
 800296a:	fab2 f282 	clz	r2, r2
 800296e:	f401 1170 	and.w	r1, r1, #3932160	@ 0x3c0000
 8002972:	40d1      	lsrs	r1, r2
 8002974:	f004 040f 	and.w	r4, r4, #15
 8002978:	3102      	adds	r1, #2
 800297a:	4a0f      	ldr	r2, [pc, #60]	@ (80029b8 <LL_RCC_GetADCClockFreq+0xcc>)
 800297c:	3401      	adds	r4, #1
 800297e:	fbb2 f2f4 	udiv	r2, r2, r4
 8002982:	fb01 f202 	mul.w	r2, r1, r2
 8002986:	e7cb      	b.n	8002920 <LL_RCC_GetADCClockFreq+0x34>
 8002988:	6853      	ldr	r3, [r2, #4]
 800298a:	6ad1      	ldr	r1, [r2, #44]	@ 0x2c
 800298c:	6853      	ldr	r3, [r2, #4]
 800298e:	f44f 1070 	mov.w	r0, #3932160	@ 0x3c0000
 8002992:	fa90 f2a0 	rbit	r2, r0
 8002996:	fab2 f282 	clz	r2, r2
 800299a:	4003      	ands	r3, r0
 800299c:	40d3      	lsrs	r3, r2
 800299e:	3302      	adds	r3, #2
 80029a0:	f001 020f 	and.w	r2, r1, #15
 80029a4:	4804      	ldr	r0, [pc, #16]	@ (80029b8 <LL_RCC_GetADCClockFreq+0xcc>)
 80029a6:	3201      	adds	r2, #1
 80029a8:	fbb0 f0f2 	udiv	r0, r0, r2
 80029ac:	fb03 f000 	mul.w	r0, r3, r0
 80029b0:	e7a7      	b.n	8002902 <LL_RCC_GetADCClockFreq+0x16>
 80029b2:	bf00      	nop
 80029b4:	40021000 	.word	0x40021000
 80029b8:	007a1200 	.word	0x007a1200
 80029bc:	0800316c 	.word	0x0800316c
 80029c0:	0800317c 	.word	0x0800317c
 80029c4:	080031c4 	.word	0x080031c4

080029c8 <LL_RCC_GetTIMClockFreq>:
 80029c8:	4603      	mov	r3, r0
 80029ca:	bb78      	cbnz	r0, 8002a2c <LL_RCC_GetTIMClockFreq+0x64>
 80029cc:	f100 4380 	add.w	r3, r0, #1073741824	@ 0x40000000
 80029d0:	f503 3304 	add.w	r3, r3, #135168	@ 0x21000
 80029d4:	6b1a      	ldr	r2, [r3, #48]	@ 0x30
 80029d6:	f412 7f80 	tst.w	r2, #256	@ 0x100
 80029da:	685a      	ldr	r2, [r3, #4]
 80029dc:	d132      	bne.n	8002a44 <LL_RCC_GetTIMClockFreq+0x7c>
 80029de:	f002 020c 	and.w	r2, r2, #12
 80029e2:	2a08      	cmp	r2, #8
 80029e4:	d143      	bne.n	8002a6e <LL_RCC_GetTIMClockFreq+0xa6>
 80029e6:	685a      	ldr	r2, [r3, #4]
 80029e8:	6ada      	ldr	r2, [r3, #44]	@ 0x2c
 80029ea:	685b      	ldr	r3, [r3, #4]
 80029ec:	f44f 1170 	mov.w	r1, #3932160	@ 0x3c0000
 80029f0:	fa91 f1a1 	rbit	r1, r1
 80029f4:	fab1 f181 	clz	r1, r1
 80029f8:	f403 1370 	and.w	r3, r3, #3932160	@ 0x3c0000
 80029fc:	40cb      	lsrs	r3, r1
 80029fe:	f002 020f 	and.w	r2, r2, #15
 8002a02:	3302      	adds	r3, #2
 8002a04:	4848      	ldr	r0, [pc, #288]	@ (8002b28 <LL_RCC_GetTIMClockFreq+0x160>)
 8002a06:	3201      	adds	r2, #1
 8002a08:	fbb0 f0f2 	udiv	r0, r0, r2
 8002a0c:	fb03 f000 	mul.w	r0, r3, r0
 8002a10:	4b46      	ldr	r3, [pc, #280]	@ (8002b2c <LL_RCC_GetTIMClockFreq+0x164>)
 8002a12:	4947      	ldr	r1, [pc, #284]	@ (8002b30 <LL_RCC_GetTIMClockFreq+0x168>)
 8002a14:	685a      	ldr	r2, [r3, #4]
 8002a16:	685b      	ldr	r3, [r3, #4]
 8002a18:	f3c2 1203 	ubfx	r2, r2, #4, #4
 8002a1c:	f3c3 23c2 	ubfx	r3, r3, #11, #3
 8002a20:	5c89      	ldrb	r1, [r1, r2]
 8002a22:	4a44      	ldr	r2, [pc, #272]	@ (8002b34 <LL_RCC_GetTIMClockFreq+0x16c>)
 8002a24:	5cd3      	ldrb	r3, [r2, r3]
 8002a26:	40c8      	lsrs	r0, r1
 8002a28:	40d8      	lsrs	r0, r3
 8002a2a:	4770      	bx	lr
 8002a2c:	2801      	cmp	r0, #1
 8002a2e:	d020      	beq.n	8002a72 <LL_RCC_GetTIMClockFreq+0xaa>
 8002a30:	2802      	cmp	r0, #2
 8002a32:	d025      	beq.n	8002a80 <LL_RCC_GetTIMClockFreq+0xb8>
 8002a34:	2803      	cmp	r0, #3
 8002a36:	d12a      	bne.n	8002a8e <LL_RCC_GetTIMClockFreq+0xc6>
 8002a38:	4b3c      	ldr	r3, [pc, #240]	@ (8002b2c <LL_RCC_GetTIMClockFreq+0x164>)
 8002a3a:	6b1a      	ldr	r2, [r3, #48]	@ 0x30
 8002a3c:	f412 6f00 	tst.w	r2, #2048	@ 0x800
 8002a40:	685a      	ldr	r2, [r3, #4]
 8002a42:	d0cc      	beq.n	80029de <LL_RCC_GetTIMClockFreq+0x16>
 8002a44:	6ada      	ldr	r2, [r3, #44]	@ 0x2c
 8002a46:	685b      	ldr	r3, [r3, #4]
 8002a48:	f44f 1170 	mov.w	r1, #3932160	@ 0x3c0000
 8002a4c:	fa91 f1a1 	rbit	r1, r1
 8002a50:	fab1 f181 	clz	r1, r1
 8002a54:	f403 1370 	and.w	r3, r3, #3932160	@ 0x3c0000
 8002a58:	40cb      	lsrs	r3, r1
 8002a5a:	f002 020f 	and.w	r2, r2, #15
 8002a5e:	3302      	adds	r3, #2
 8002a60:	4831      	ldr	r0, [pc, #196]	@ (8002b28 <LL_RCC_GetTIMClockFreq+0x160>)
 8002a62:	3201      	adds	r2, #1
 8002a64:	fbb0 f0f2 	udiv	r0, r0, r2
 8002a68:	fb03 f000 	mul.w	r0, r3, r0
 8002a6c:	4770      	bx	lr
 8002a6e:	482e      	ldr	r0, [pc, #184]	@ (8002b28 <LL_RCC_GetTIMClockFreq+0x160>)
 8002a70:	e7ce      	b.n	8002a10 <LL_RCC_GetTIMClockFreq+0x48>
 8002a72:	4b2e      	ldr	r3, [pc, #184]	@ (8002b2c <LL_RCC_GetTIMClockFreq+0x164>)
 8002a74:	6b1a      	ldr	r2, [r3, #48]	@ 0x30
 8002a76:	f412 7f00 	tst.w	r2, #512	@ 0x200
 8002a7a:	685a      	ldr	r2, [r3, #4]
 8002a7c:	d1e2      	bne.n	8002a44 <LL_RCC_GetTIMClockFreq+0x7c>
 8002a7e:	e7ae      	b.n	80029de <LL_RCC_GetTIMClockFreq+0x16>
 8002a80:	4b2a      	ldr	r3, [pc, #168]	@ (8002b2c <LL_RCC_GetTIMClockFreq+0x164>)
 8002a82:	6b1a      	ldr	r2, [r3, #48]	@ 0x30
 8002a84:	f412 6f80 	tst.w	r2, #1024	@ 0x400
 8002a88:	685a      	ldr	r2, [r3, #4]
 8002a8a:	d1db      	bne.n	8002a44 <LL_RCC_GetTIMClockFreq+0x7c>
 8002a8c:	e7a7      	b.n	80029de <LL_RCC_GetTIMClockFreq+0x16>
 8002a8e:	2805      	cmp	r0, #5
 8002a90:	d106      	bne.n	8002aa0 <LL_RCC_GetTIMClockFreq+0xd8>
 8002a92:	4b26      	ldr	r3, [pc, #152]	@ (8002b2c <LL_RCC_GetTIMClockFreq+0x164>)
 8002a94:	6b1a      	ldr	r2, [r3, #48]	@ 0x30
 8002a96:	f412 5f00 	tst.w	r2, #8192	@ 0x2000
 8002a9a:	685a      	ldr	r2, [r3, #4]
 8002a9c:	d1d2      	bne.n	8002a44 <LL_RCC_GetTIMClockFreq+0x7c>
 8002a9e:	e79e      	b.n	80029de <LL_RCC_GetTIMClockFreq+0x16>
 8002aa0:	2807      	cmp	r0, #7
 8002aa2:	d106      	bne.n	8002ab2 <LL_RCC_GetTIMClockFreq+0xea>
 8002aa4:	4b21      	ldr	r3, [pc, #132]	@ (8002b2c <LL_RCC_GetTIMClockFreq+0x164>)
 8002aa6:	6b1a      	ldr	r2, [r3, #48]	@ 0x30
 8002aa8:	f412 4f00 	tst.w	r2, #32768	@ 0x8000
 8002aac:	685a      	ldr	r2, [r3, #4]
 8002aae:	d1c9      	bne.n	8002a44 <LL_RCC_GetTIMClockFreq+0x7c>
 8002ab0:	e795      	b.n	80029de <LL_RCC_GetTIMClockFreq+0x16>
 8002ab2:	2b10      	cmp	r3, #16
 8002ab4:	f04f 0000 	mov.w	r0, #0
 8002ab8:	d127      	bne.n	8002b0a <LL_RCC_GetTIMClockFreq+0x142>
 8002aba:	4b1c      	ldr	r3, [pc, #112]	@ (8002b2c <LL_RCC_GetTIMClockFreq+0x164>)
 8002abc:	6b1a      	ldr	r2, [r3, #48]	@ 0x30
 8002abe:	f012 7f80 	tst.w	r2, #16777216	@ 0x1000000
 8002ac2:	685a      	ldr	r2, [r3, #4]
 8002ac4:	d1be      	bne.n	8002a44 <LL_RCC_GetTIMClockFreq+0x7c>
 8002ac6:	f002 020c 	and.w	r2, r2, #12
 8002aca:	2a08      	cmp	r2, #8
 8002acc:	d129      	bne.n	8002b22 <LL_RCC_GetTIMClockFreq+0x15a>
 8002ace:	685a      	ldr	r2, [r3, #4]
 8002ad0:	6ada      	ldr	r2, [r3, #44]	@ 0x2c
 8002ad2:	685b      	ldr	r3, [r3, #4]
 8002ad4:	f44f 1170 	mov.w	r1, #3932160	@ 0x3c0000
 8002ad8:	fa91 f1a1 	rbit	r1, r1
 8002adc:	fab1 f181 	clz	r1, r1
 8002ae0:	f403 1370 	and.w	r3, r3, #3932160	@ 0x3c0000
 8002ae4:	40cb      	lsrs	r3, r1
 8002ae6:	f002 020f 	and.w	r2, r2, #15
 8002aea:	3302      	adds	r3, #2
 8002aec:	480e      	ldr	r0, [pc, #56]	@ (8002b28 <LL_RCC_GetTIMClockFreq+0x160>)
 8002aee:	3201      	adds	r2, #1
 8002af0:	fbb0 f0f2 	udiv	r0, r0, r2
 8002af4:	fb03 f000 	mul.w	r0, r3, r0
 8002af8:	4b0c      	ldr	r3, [pc, #48]	@ (8002b2c <LL_RCC_GetTIMClockFreq+0x164>)
 8002afa:	490d      	ldr	r1, [pc, #52]	@ (8002b30 <LL_RCC_GetTIMClockFreq+0x168>)
 8002afc:	685a      	ldr	r2, [r3, #4]
 8002afe:	685b      	ldr	r3, [r3, #4]
 8002b00:	f3c2 1203 	ubfx	r2, r2, #4, #4
 8002b04:	f3c3 2302 	ubfx	r3, r3, #8, #3
 8002b08:	e78a      	b.n	8002a20 <LL_RCC_GetTIMClockFreq+0x58>
 8002b0a:	2b11      	cmp	r3, #17
 8002b0c:	d1ae      	bne.n	8002a6c <LL_RCC_GetTIMClockFreq+0xa4>
 8002b0e:	4b07      	ldr	r3, [pc, #28]	@ (8002b2c <LL_RCC_GetTIMClockFreq+0x164>)
 8002b10:	6b1a      	ldr	r2, [r3, #48]	@ 0x30
 8002b12:	f012 7f00 	tst.w	r2, #33554432	@ 0x2000000
 8002b16:	685a      	ldr	r2, [r3, #4]
 8002b18:	d194      	bne.n	8002a44 <LL_RCC_GetTIMClockFreq+0x7c>
 8002b1a:	f002 020c 	and.w	r2, r2, #12
 8002b1e:	2a08      	cmp	r2, #8
 8002b20:	d0d5      	beq.n	8002ace <LL_RCC_GetTIMClockFreq+0x106>
 8002b22:	4801      	ldr	r0, [pc, #4]	@ (8002b28 <LL_RCC_GetTIMClockFreq+0x160>)
 8002b24:	e7e8      	b.n	8002af8 <LL_RCC_GetTIMClockFreq+0x130>
 8002b26:	bf00      	nop
 8002b28:	007a1200 	.word	0x007a1200
 8002b2c:	40021000 	.word	0x40021000
 8002b30:	0800316c 	.word	0x0800316c
 8002b34:	0800317c 	.word	0x0800317c

08002b38 <RCC_GetSystemClockFreq>:
 8002b38:	4a0e      	ldr	r2, [pc, #56]	@ (8002b74 <RCC_GetSystemClockFreq+0x3c>)
 8002b3a:	6853      	ldr	r3, [r2, #4]
 8002b3c:	f003 030c 	and.w	r3, r3, #12
 8002b40:	2b08      	cmp	r3, #8
 8002b42:	d001      	beq.n	8002b48 <RCC_GetSystemClockFreq+0x10>
 8002b44:	480c      	ldr	r0, [pc, #48]	@ (8002b78 <RCC_GetSystemClockFreq+0x40>)
 8002b46:	4770      	bx	lr
 8002b48:	6853      	ldr	r3, [r2, #4]
 8002b4a:	6ad1      	ldr	r1, [r2, #44]	@ 0x2c
 8002b4c:	6853      	ldr	r3, [r2, #4]
 8002b4e:	f44f 1070 	mov.w	r0, #3932160	@ 0x3c0000
 8002b52:	fa90 f2a0 	rbit	r2, r0
 8002b56:	fab2 f282 	clz	r2, r2
 8002b5a:	4003      	ands	r3, r0
 8002b5c:	40d3      	lsrs	r3, r2
 8002b5e:	3302      	adds	r3, #2
 8002b60:	f001 020f 	and.w	r2, r1, #15
 8002b64:	3201      	adds	r2, #1
 8002b66:	4804      	ldr	r0, [pc, #16]	@ (8002b78 <RCC_GetSystemClockFreq+0x40>)
 8002b68:	fbb0 f0f2 	udiv	r0, r0, r2
 8002b6c:	fb03 f000 	mul.w	r0, r3, r0
 8002b70:	4770      	bx	lr
 8002b72:	bf00      	nop
 8002b74:	40021000 	.word	0x40021000
 8002b78:	007a1200 	.word	0x007a1200

08002b7c <RCC_GetHCLKClockFreq>:
 8002b7c:	4b03      	ldr	r3, [pc, #12]	@ (8002b8c <RCC_GetHCLKClockFreq+0x10>)
 8002b7e:	4a04      	ldr	r2, [pc, #16]	@ (8002b90 <RCC_GetHCLKClockFreq+0x14>)
 8002b80:	685b      	ldr	r3, [r3, #4]
 8002b82:	f3c3 1303 	ubfx	r3, r3, #4, #4
 8002b86:	5cd3      	ldrb	r3, [r2, r3]
 8002b88:	40d8      	lsrs	r0, r3
 8002b8a:	4770      	bx	lr
 8002b8c:	40021000 	.word	0x40021000
 8002b90:	0800316c 	.word	0x0800316c

08002b94 <RCC_GetPCLK1ClockFreq>:
 8002b94:	4b03      	ldr	r3, [pc, #12]	@ (8002ba4 <RCC_GetPCLK1ClockFreq+0x10>)
 8002b96:	4a04      	ldr	r2, [pc, #16]	@ (8002ba8 <RCC_GetPCLK1ClockFreq+0x14>)
 8002b98:	685b      	ldr	r3, [r3, #4]
 8002b9a:	f3c3 2302 	ubfx	r3, r3, #8, #3
 8002b9e:	5cd3      	ldrb	r3, [r2, r3]
 8002ba0:	40d8      	lsrs	r0, r3
 8002ba2:	4770      	bx	lr
 8002ba4:	40021000 	.word	0x40021000
 8002ba8:	0800317c 	.word	0x0800317c

08002bac <RCC_GetPCLK2ClockFreq>:
 8002bac:	4b03      	ldr	r3, [pc, #12]	@ (8002bbc <RCC_GetPCLK2ClockFreq+0x10>)
 8002bae:	4a04      	ldr	r2, [pc, #16]	@ (8002bc0 <RCC_GetPCLK2ClockFreq+0x14>)
 8002bb0:	685b      	ldr	r3, [r3, #4]
 8002bb2:	f3c3 23c2 	ubfx	r3, r3, #11, #3
 8002bb6:	5cd3      	ldrb	r3, [r2, r3]
 8002bb8:	40d8      	lsrs	r0, r3
 8002bba:	4770      	bx	lr
 8002bbc:	40021000 	.word	0x40021000
 8002bc0:	0800317c 	.word	0x0800317c

08002bc4 <RCC_PLL_GetFreqDomain_SYS>:
 8002bc4:	4b0b      	ldr	r3, [pc, #44]	@ (8002bf4 <RCC_PLL_GetFreqDomain_SYS+0x30>)
 8002bc6:	f44f 1170 	mov.w	r1, #3932160	@ 0x3c0000
 8002bca:	685a      	ldr	r2, [r3, #4]
 8002bcc:	6ada      	ldr	r2, [r3, #44]	@ 0x2c
 8002bce:	685b      	ldr	r3, [r3, #4]
 8002bd0:	fa91 f1a1 	rbit	r1, r1
 8002bd4:	fab1 f181 	clz	r1, r1
 8002bd8:	f403 1370 	and.w	r3, r3, #3932160	@ 0x3c0000
 8002bdc:	40cb      	lsrs	r3, r1
 8002bde:	3302      	adds	r3, #2
 8002be0:	f002 020f 	and.w	r2, r2, #15
 8002be4:	3201      	adds	r2, #1
 8002be6:	4804      	ldr	r0, [pc, #16]	@ (8002bf8 <RCC_PLL_GetFreqDomain_SYS+0x34>)
 8002be8:	fbb0 f0f2 	udiv	r0, r0, r2
 8002bec:	fb03 f000 	mul.w	r0, r3, r0
 8002bf0:	4770      	bx	lr
 8002bf2:	bf00      	nop
 8002bf4:	40021000 	.word	0x40021000
 8002bf8:	007a1200 	.word	0x007a1200

08002bfc <LL_USART_DeInit>:
 8002bfc:	4b24      	ldr	r3, [pc, #144]	@ (8002c90 <LL_USART_DeInit+0x94>)
 8002bfe:	4298      	cmp	r0, r3
 8002c00:	d019      	beq.n	8002c36 <LL_USART_DeInit+0x3a>
 8002c02:	4b24      	ldr	r3, [pc, #144]	@ (8002c94 <LL_USART_DeInit+0x98>)
 8002c04:	4298      	cmp	r0, r3
 8002c06:	d00a      	beq.n	8002c1e <LL_USART_DeInit+0x22>
 8002c08:	4b23      	ldr	r3, [pc, #140]	@ (8002c98 <LL_USART_DeInit+0x9c>)
 8002c0a:	4298      	cmp	r0, r3
 8002c0c:	d02a      	beq.n	8002c64 <LL_USART_DeInit+0x68>
 8002c0e:	4b23      	ldr	r3, [pc, #140]	@ (8002c9c <LL_USART_DeInit+0xa0>)
 8002c10:	4298      	cmp	r0, r3
 8002c12:	d032      	beq.n	8002c7a <LL_USART_DeInit+0x7e>
 8002c14:	4b22      	ldr	r3, [pc, #136]	@ (8002ca0 <LL_USART_DeInit+0xa4>)
 8002c16:	4298      	cmp	r0, r3
 8002c18:	d019      	beq.n	8002c4e <LL_USART_DeInit+0x52>
 8002c1a:	2001      	movs	r0, #1
 8002c1c:	4770      	bx	lr
 8002c1e:	f503 33e6 	add.w	r3, r3, #117760	@ 0x1cc00
 8002c22:	691a      	ldr	r2, [r3, #16]
 8002c24:	f442 3200 	orr.w	r2, r2, #131072	@ 0x20000
 8002c28:	611a      	str	r2, [r3, #16]
 8002c2a:	691a      	ldr	r2, [r3, #16]
 8002c2c:	f422 3200 	bic.w	r2, r2, #131072	@ 0x20000
 8002c30:	611a      	str	r2, [r3, #16]
 8002c32:	2000      	movs	r0, #0
 8002c34:	4770      	bx	lr
 8002c36:	f503 4358 	add.w	r3, r3, #55296	@ 0xd800
 8002c3a:	2000      	movs	r0, #0
 8002c3c:	68da      	ldr	r2, [r3, #12]
 8002c3e:	f442 4280 	orr.w	r2, r2, #16384	@ 0x4000
 8002c42:	60da      	str	r2, [r3, #12]
 8002c44:	68da      	ldr	r2, [r3, #12]
 8002c46:	f422 4280 	bic.w	r2, r2, #16384	@ 0x4000
 8002c4a:	60da      	str	r2, [r3, #12]
 8002c4c:	4770      	bx	lr
 8002c4e:	f503 33e0 	add.w	r3, r3, #114688	@ 0x1c000
 8002c52:	691a      	ldr	r2, [r3, #16]
 8002c54:	f442 1280 	orr.w	r2, r2, #1048576	@ 0x100000
 8002c58:	611a      	str	r2, [r3, #16]
 8002c5a:	691a      	ldr	r2, [r3, #16]
 8002c5c:	f422 1280 	bic.w	r2, r2, #1048576	@ 0x100000
 8002c60:	611a      	str	r2, [r3, #16]
 8002c62:	e7e6      	b.n	8002c32 <LL_USART_DeInit+0x36>
 8002c64:	f503 33e4 	add.w	r3, r3, #116736	@ 0x1c800
 8002c68:	691a      	ldr	r2, [r3, #16]
 8002c6a:	f442 2280 	orr.w	r2, r2, #262144	@ 0x40000
 8002c6e:	611a      	str	r2, [r3, #16]
 8002c70:	691a      	ldr	r2, [r3, #16]
 8002c72:	f422 2280 	bic.w	r2, r2, #262144	@ 0x40000
 8002c76:	611a      	str	r2, [r3, #16]
 8002c78:	e7db      	b.n	8002c32 <LL_USART_DeInit+0x36>
 8002c7a:	f503 33e2 	add.w	r3, r3, #115712	@ 0x1c400
 8002c7e:	691a      	ldr	r2, [r3, #16]
 8002c80:	f442 2200 	orr.w	r2, r2, #524288	@ 0x80000
 8002c84:	611a      	str	r2, [r3, #16]
 8002c86:	691a      	ldr	r2, [r3, #16]
 8002c88:	f422 2200 	bic.w	r2, r2, #524288	@ 0x80000
 8002c8c:	611a      	str	r2, [r3, #16]
 8002c8e:	e7d0      	b.n	8002c32 <LL_USART_DeInit+0x36>
 8002c90:	40013800 	.word	0x40013800
 8002c94:	40004400 	.word	0x40004400
 8002c98:	40004800 	.word	0x40004800
 8002c9c:	40004c00 	.word	0x40004c00
 8002ca0:	40005000 	.word	0x40005000

08002ca4 <LL_USART_Init>:
 8002ca4:	b538      	push	{r3, r4, r5, lr}
 8002ca6:	4604      	mov	r4, r0
 8002ca8:	6800      	ldr	r0, [r0, #0]
 8002caa:	f010 0001 	ands.w	r0, r0, #1
 8002cae:	d127      	bne.n	8002d00 <LL_USART_Init+0x5c>
 8002cb0:	68ca      	ldr	r2, [r1, #12]
 8002cb2:	684b      	ldr	r3, [r1, #4]
 8002cb4:	460d      	mov	r5, r1
 8002cb6:	4313      	orrs	r3, r2
 8002cb8:	692a      	ldr	r2, [r5, #16]
 8002cba:	6821      	ldr	r1, [r4, #0]
 8002cbc:	4313      	orrs	r3, r2
 8002cbe:	69aa      	ldr	r2, [r5, #24]
 8002cc0:	4313      	orrs	r3, r2
 8002cc2:	4a28      	ldr	r2, [pc, #160]	@ (8002d64 <LL_USART_Init+0xc0>)
 8002cc4:	400a      	ands	r2, r1
 8002cc6:	4313      	orrs	r3, r2
 8002cc8:	6023      	str	r3, [r4, #0]
 8002cca:	6863      	ldr	r3, [r4, #4]
 8002ccc:	68aa      	ldr	r2, [r5, #8]
 8002cce:	f423 5340 	bic.w	r3, r3, #12288	@ 0x3000
 8002cd2:	4313      	orrs	r3, r2
 8002cd4:	6063      	str	r3, [r4, #4]
 8002cd6:	68a3      	ldr	r3, [r4, #8]
 8002cd8:	696a      	ldr	r2, [r5, #20]
 8002cda:	f423 7340 	bic.w	r3, r3, #768	@ 0x300
 8002cde:	4313      	orrs	r3, r2
 8002ce0:	4a21      	ldr	r2, [pc, #132]	@ (8002d68 <LL_USART_Init+0xc4>)
 8002ce2:	60a3      	str	r3, [r4, #8]
 8002ce4:	4294      	cmp	r4, r2
 8002ce6:	d00e      	beq.n	8002d06 <LL_USART_Init+0x62>
 8002ce8:	4b20      	ldr	r3, [pc, #128]	@ (8002d6c <LL_USART_Init+0xc8>)
 8002cea:	429c      	cmp	r4, r3
 8002cec:	d00a      	beq.n	8002d04 <LL_USART_Init+0x60>
 8002cee:	4b20      	ldr	r3, [pc, #128]	@ (8002d70 <LL_USART_Init+0xcc>)
 8002cf0:	429c      	cmp	r4, r3
 8002cf2:	d01c      	beq.n	8002d2e <LL_USART_Init+0x8a>
 8002cf4:	4b1f      	ldr	r3, [pc, #124]	@ (8002d74 <LL_USART_Init+0xd0>)
 8002cf6:	429c      	cmp	r4, r3
 8002cf8:	d022      	beq.n	8002d40 <LL_USART_Init+0x9c>
 8002cfa:	4b1f      	ldr	r3, [pc, #124]	@ (8002d78 <LL_USART_Init+0xd4>)
 8002cfc:	429c      	cmp	r4, r3
 8002cfe:	d01a      	beq.n	8002d36 <LL_USART_Init+0x92>
 8002d00:	2001      	movs	r0, #1
 8002d02:	bd38      	pop	{r3, r4, r5, pc}
 8002d04:	2010      	movs	r0, #16
 8002d06:	f7ff fc05 	bl	8002514 <LL_RCC_GetUSARTClockFreq>
 8002d0a:	2800      	cmp	r0, #0
 8002d0c:	d0f8      	beq.n	8002d00 <LL_USART_Init+0x5c>
 8002d0e:	682b      	ldr	r3, [r5, #0]
 8002d10:	2b00      	cmp	r3, #0
 8002d12:	d0f5      	beq.n	8002d00 <LL_USART_Init+0x5c>
 8002d14:	69a9      	ldr	r1, [r5, #24]
 8002d16:	f5b1 4f00 	cmp.w	r1, #32768	@ 0x8000
 8002d1a:	ea4f 0253 	mov.w	r2, r3, lsr #1
 8002d1e:	d014      	beq.n	8002d4a <LL_USART_Init+0xa6>
 8002d20:	4410      	add	r0, r2
 8002d22:	fbb0 f3f3 	udiv	r3, r0, r3
 8002d26:	b29b      	uxth	r3, r3
 8002d28:	60e3      	str	r3, [r4, #12]
 8002d2a:	2000      	movs	r0, #0
 8002d2c:	bd38      	pop	{r3, r4, r5, pc}
 8002d2e:	2012      	movs	r0, #18
 8002d30:	f7ff fbf0 	bl	8002514 <LL_RCC_GetUSARTClockFreq>
 8002d34:	e7e9      	b.n	8002d0a <LL_USART_Init+0x66>
 8002d36:	f44f 0040 	mov.w	r0, #12582912	@ 0xc00000
 8002d3a:	f7ff fca1 	bl	8002680 <LL_RCC_GetUARTClockFreq>
 8002d3e:	e7e4      	b.n	8002d0a <LL_USART_Init+0x66>
 8002d40:	f44f 1040 	mov.w	r0, #3145728	@ 0x300000
 8002d44:	f7ff fc9c 	bl	8002680 <LL_RCC_GetUARTClockFreq>
 8002d48:	e7df      	b.n	8002d0a <LL_USART_Init+0x66>
 8002d4a:	f64f 71f0 	movw	r1, #65520	@ 0xfff0
 8002d4e:	eb02 0240 	add.w	r2, r2, r0, lsl #1
 8002d52:	fbb2 f2f3 	udiv	r2, r2, r3
 8002d56:	ea02 0301 	and.w	r3, r2, r1
 8002d5a:	f3c2 0242 	ubfx	r2, r2, #1, #3
 8002d5e:	431a      	orrs	r2, r3
 8002d60:	60e2      	str	r2, [r4, #12]
 8002d62:	e7e2      	b.n	8002d2a <LL_USART_Init+0x86>
 8002d64:	efff69f3 	.word	0xefff69f3
 8002d68:	40013800 	.word	0x40013800
 8002d6c:	40004400 	.word	0x40004400
 8002d70:	40004800 	.word	0x40004800
 8002d74:	40004c00 	.word	0x40004c00
 8002d78:	40005000 	.word	0x40005000

08002d7c <LL_USART_StructInit>:
 8002d7c:	2300      	movs	r3, #0
 8002d7e:	f44f 5116 	mov.w	r1, #9600	@ 0x2580
 8002d82:	220c      	movs	r2, #12
 8002d84:	e9c0 1300 	strd	r1, r3, [r0]
 8002d88:	e9c0 3302 	strd	r3, r3, [r0, #8]
 8002d8c:	e9c0 2304 	strd	r2, r3, [r0, #16]
 8002d90:	6183      	str	r3, [r0, #24]
 8002d92:	4770      	bx	lr

08002d94 <LL_USART_ClockInit>:
 8002d94:	6803      	ldr	r3, [r0, #0]
 8002d96:	07db      	lsls	r3, r3, #31
 8002d98:	d407      	bmi.n	8002daa <LL_USART_ClockInit+0x16>
 8002d9a:	680b      	ldr	r3, [r1, #0]
 8002d9c:	b93b      	cbnz	r3, 8002dae <LL_USART_ClockInit+0x1a>
 8002d9e:	6843      	ldr	r3, [r0, #4]
 8002da0:	f423 6300 	bic.w	r3, r3, #2048	@ 0x800
 8002da4:	6043      	str	r3, [r0, #4]
 8002da6:	2000      	movs	r0, #0
 8002da8:	4770      	bx	lr
 8002daa:	2001      	movs	r0, #1
 8002dac:	4770      	bx	lr
 8002dae:	b410      	push	{r4}
 8002db0:	e9d1 3401 	ldrd	r3, r4, [r1, #4]
 8002db4:	6842      	ldr	r2, [r0, #4]
 8002db6:	68c9      	ldr	r1, [r1, #12]
 8002db8:	4323      	orrs	r3, r4
 8002dba:	f422 6270 	bic.w	r2, r2, #3840	@ 0xf00
 8002dbe:	4313      	orrs	r3, r2
 8002dc0:	430b      	orrs	r3, r1
 8002dc2:	f443 6300 	orr.w	r3, r3, #2048	@ 0x800
 8002dc6:	6043      	str	r3, [r0, #4]
 8002dc8:	f85d 4b04 	ldr.w	r4, [sp], #4
 8002dcc:	2000      	movs	r0, #0
 8002dce:	4770      	bx	lr

08002dd0 <LL_USART_ClockStructInit>:
 8002dd0:	2300      	movs	r3, #0
 8002dd2:	e9c0 3300 	strd	r3, r3, [r0]
 8002dd6:	e9c0 3302 	strd	r3, r3, [r0, #8]
 8002dda:	4770      	bx	lr

08002ddc <main>:
 8002ddc:	e92d 4df0 	stmdb	sp!, {r4, r5, r6, r7, r8, sl, fp, lr}
 8002de0:	4dab      	ldr	r5, [pc, #684]	@ (8003090 <main+0x2b4>)
 8002de2:	4eac      	ldr	r6, [pc, #688]	@ (8003094 <main+0x2b8>)
 8002de4:	b096      	sub	sp, #88	@ 0x58
 8002de6:	2400      	movs	r4, #0
 8002de8:	f7fd fd0e 	bl	8000808 <HAL_Init>
 8002dec:	2702      	movs	r7, #2
 8002dee:	f44f 7280 	mov.w	r2, #256	@ 0x100
 8002df2:	a90e      	add	r1, sp, #56	@ 0x38
 8002df4:	f04f 4090 	mov.w	r0, #1207959552	@ 0x48000000
 8002df8:	f44f 1304 	mov.w	r3, #2162688	@ 0x210000
 8002dfc:	e9cd 230e 	strd	r2, r3, [sp, #56]	@ 0x38
 8002e00:	e9cd 4411 	strd	r4, r4, [sp, #68]	@ 0x44
 8002e04:	9710      	str	r7, [sp, #64]	@ 0x40
 8002e06:	f7fd ff3f 	bl	8000c88 <HAL_GPIO_Init>
 8002e0a:	462b      	mov	r3, r5
 8002e0c:	f04f 0801 	mov.w	r8, #1
 8002e10:	f803 4b08 	strb.w	r4, [r3], #8
 8002e14:	606b      	str	r3, [r5, #4]
 8002e16:	f105 032c 	add.w	r3, r5, #44	@ 0x2c
 8002e1a:	62ab      	str	r3, [r5, #40]	@ 0x28
 8002e1c:	f885 8001 	strb.w	r8, [r5, #1]
 8002e20:	f7fd f9d8 	bl	80001d4 <InitCom>
 8002e24:	f7fd faa0 	bl	8000368 <SystemClock_Config>
 8002e28:	e9cd 440e 	strd	r4, r4, [sp, #56]	@ 0x38
 8002e2c:	e9cd 4410 	strd	r4, r4, [sp, #64]	@ 0x40
 8002e30:	9412      	str	r4, [sp, #72]	@ 0x48
 8002e32:	6973      	ldr	r3, [r6, #20]
 8002e34:	f443 2300 	orr.w	r3, r3, #524288	@ 0x80000
 8002e38:	6173      	str	r3, [r6, #20]
 8002e3a:	6973      	ldr	r3, [r6, #20]
 8002e3c:	f403 2300 	and.w	r3, r3, #524288	@ 0x80000
 8002e40:	9304      	str	r3, [sp, #16]
 8002e42:	9b04      	ldr	r3, [sp, #16]
 8002e44:	6973      	ldr	r3, [r6, #20]
 8002e46:	f443 0380 	orr.w	r3, r3, #4194304	@ 0x400000
 8002e4a:	6173      	str	r3, [r6, #20]
 8002e4c:	6973      	ldr	r3, [r6, #20]
 8002e4e:	f403 0380 	and.w	r3, r3, #4194304	@ 0x400000
 8002e52:	9305      	str	r3, [sp, #20]
 8002e54:	9b05      	ldr	r3, [sp, #20]
 8002e56:	6973      	ldr	r3, [r6, #20]
 8002e58:	f443 3300 	orr.w	r3, r3, #131072	@ 0x20000
 8002e5c:	6173      	str	r3, [r6, #20]
 8002e5e:	6973      	ldr	r3, [r6, #20]
 8002e60:	f403 3300 	and.w	r3, r3, #131072	@ 0x20000
 8002e64:	9306      	str	r3, [sp, #24]
 8002e66:	9b06      	ldr	r3, [sp, #24]
 8002e68:	6973      	ldr	r3, [r6, #20]
 8002e6a:	f443 2380 	orr.w	r3, r3, #262144	@ 0x40000
 8002e6e:	6173      	str	r3, [r6, #20]
 8002e70:	6973      	ldr	r3, [r6, #20]
 8002e72:	f403 2380 	and.w	r3, r3, #262144	@ 0x40000
 8002e76:	9307      	str	r3, [sp, #28]
 8002e78:	4622      	mov	r2, r4
 8002e7a:	2120      	movs	r1, #32
 8002e7c:	f04f 4090 	mov.w	r0, #1207959552	@ 0x48000000
 8002e80:	9b07      	ldr	r3, [sp, #28]
 8002e82:	f7fe f8c1 	bl	8001008 <HAL_GPIO_WritePin>
 8002e86:	f44f 5200 	mov.w	r2, #8192	@ 0x2000
 8002e8a:	f44f 1304 	mov.w	r3, #2162688	@ 0x210000
 8002e8e:	4882      	ldr	r0, [pc, #520]	@ (8003098 <main+0x2bc>)
 8002e90:	9410      	str	r4, [sp, #64]	@ 0x40
 8002e92:	a90e      	add	r1, sp, #56	@ 0x38
 8002e94:	e9cd 230e 	strd	r2, r3, [sp, #56]	@ 0x38
 8002e98:	f7fd fef6 	bl	8000c88 <HAL_GPIO_Init>
 8002e9c:	2320      	movs	r3, #32
 8002e9e:	a90e      	add	r1, sp, #56	@ 0x38
 8002ea0:	f04f 4090 	mov.w	r0, #1207959552	@ 0x48000000
 8002ea4:	930e      	str	r3, [sp, #56]	@ 0x38
 8002ea6:	e9cd 840f 	strd	r8, r4, [sp, #60]	@ 0x3c
 8002eaa:	9411      	str	r4, [sp, #68]	@ 0x44
 8002eac:	f7fd feec 	bl	8000c88 <HAL_GPIO_Init>
 8002eb0:	f44f 7280 	mov.w	r2, #256	@ 0x100
 8002eb4:	f44f 1388 	mov.w	r3, #1114112	@ 0x110000
 8002eb8:	a90e      	add	r1, sp, #56	@ 0x38
 8002eba:	f04f 4090 	mov.w	r0, #1207959552	@ 0x48000000
 8002ebe:	e9cd 230e 	strd	r2, r3, [sp, #56]	@ 0x38
 8002ec2:	9710      	str	r7, [sp, #64]	@ 0x40
 8002ec4:	f7fd fee0 	bl	8000c88 <HAL_GPIO_Init>
 8002ec8:	f44f 1304 	mov.w	r3, #2162688	@ 0x210000
 8002ecc:	f44f 7200 	mov.w	r2, #512	@ 0x200
 8002ed0:	f04f 4090 	mov.w	r0, #1207959552	@ 0x48000000
 8002ed4:	a90e      	add	r1, sp, #56	@ 0x38
 8002ed6:	e9cd 230e 	strd	r2, r3, [sp, #56]	@ 0x38
 8002eda:	9710      	str	r7, [sp, #64]	@ 0x40
 8002edc:	f7fd fed4 	bl	8000c88 <HAL_GPIO_Init>
 8002ee0:	4622      	mov	r2, r4
 8002ee2:	4621      	mov	r1, r4
 8002ee4:	2017      	movs	r0, #23
 8002ee6:	f7fd fd59 	bl	800099c <HAL_NVIC_SetPriority>
 8002eea:	2017      	movs	r0, #23
 8002eec:	f7fd fd92 	bl	8000a14 <HAL_NVIC_EnableIRQ>
 8002ef0:	4622      	mov	r2, r4
 8002ef2:	4621      	mov	r1, r4
 8002ef4:	2028      	movs	r0, #40	@ 0x28
 8002ef6:	f7fd fd51 	bl	800099c <HAL_NVIC_SetPriority>
 8002efa:	2028      	movs	r0, #40	@ 0x28
 8002efc:	f7fd fd8a 	bl	8000a14 <HAL_NVIC_EnableIRQ>
 8002f00:	e9cd 440e 	strd	r4, r4, [sp, #56]	@ 0x38
 8002f04:	e9cd 4410 	strd	r4, r4, [sp, #64]	@ 0x40
 8002f08:	e9cd 4412 	strd	r4, r4, [sp, #72]	@ 0x48
 8002f0c:	e9cd 440a 	strd	r4, r4, [sp, #40]	@ 0x28
 8002f10:	9414      	str	r4, [sp, #80]	@ 0x50
 8002f12:	940c      	str	r4, [sp, #48]	@ 0x30
 8002f14:	69f3      	ldr	r3, [r6, #28]
 8002f16:	f443 3300 	orr.w	r3, r3, #131072	@ 0x20000
 8002f1a:	61f3      	str	r3, [r6, #28]
 8002f1c:	69f3      	ldr	r3, [r6, #28]
 8002f1e:	f403 3300 	and.w	r3, r3, #131072	@ 0x20000
 8002f22:	9302      	str	r3, [sp, #8]
 8002f24:	9b02      	ldr	r3, [sp, #8]
 8002f26:	6973      	ldr	r3, [r6, #20]
 8002f28:	f443 3300 	orr.w	r3, r3, #131072	@ 0x20000
 8002f2c:	6173      	str	r3, [r6, #20]
 8002f2e:	6973      	ldr	r3, [r6, #20]
 8002f30:	f403 3300 	and.w	r3, r3, #131072	@ 0x20000
 8002f34:	9303      	str	r3, [sp, #12]
 8002f36:	220c      	movs	r2, #12
 8002f38:	9b03      	ldr	r3, [sp, #12]
 8002f3a:	2302      	movs	r3, #2
 8002f3c:	e9cd 2308 	strd	r2, r3, [sp, #32]
 8002f40:	a908      	add	r1, sp, #32
 8002f42:	2307      	movs	r3, #7
 8002f44:	f04f 4090 	mov.w	r0, #1207959552	@ 0x48000000
 8002f48:	930d      	str	r3, [sp, #52]	@ 0x34
 8002f4a:	f7ff f9a5 	bl	8002298 <LL_GPIO_Init>
 8002f4e:	f44f 33e1 	mov.w	r3, #115200	@ 0x1c200
 8002f52:	220c      	movs	r2, #12
 8002f54:	e9cd 340e 	strd	r3, r4, [sp, #56]	@ 0x38
 8002f58:	4850      	ldr	r0, [pc, #320]	@ (800309c <main+0x2c0>)
 8002f5a:	9414      	str	r4, [sp, #80]	@ 0x50
 8002f5c:	2300      	movs	r3, #0
 8002f5e:	a90e      	add	r1, sp, #56	@ 0x38
 8002f60:	e9cd 2312 	strd	r2, r3, [sp, #72]	@ 0x48
 8002f64:	e9cd 4410 	strd	r4, r4, [sp, #64]	@ 0x40
 8002f68:	f7ff fe9c 	bl	8002ca4 <LL_USART_Init>
 8002f6c:	f04f 2240 	mov.w	r2, #1073758208	@ 0x40004000
 8002f70:	f502 6381 	add.w	r3, r2, #1032	@ 0x408
 8002f74:	e853 3f00 	ldrex	r3, [r3]
 8002f78:	f423 6380 	bic.w	r3, r3, #1024	@ 0x400
 8002f7c:	f502 6081 	add.w	r0, r2, #1032	@ 0x408
 8002f80:	e840 3100 	strex	r1, r3, [r0]
 8002f84:	2900      	cmp	r1, #0
 8002f86:	d1f3      	bne.n	8002f70 <main+0x194>
 8002f88:	4c44      	ldr	r4, [pc, #272]	@ (800309c <main+0x2c0>)
 8002f8a:	4f45      	ldr	r7, [pc, #276]	@ (80030a0 <main+0x2c4>)
 8002f8c:	6863      	ldr	r3, [r4, #4]
 8002f8e:	4e45      	ldr	r6, [pc, #276]	@ (80030a4 <main+0x2c8>)
 8002f90:	f423 4390 	bic.w	r3, r3, #18432	@ 0x4800
 8002f94:	6063      	str	r3, [r4, #4]
 8002f96:	68a3      	ldr	r3, [r4, #8]
 8002f98:	f023 032a 	bic.w	r3, r3, #42	@ 0x2a
 8002f9c:	60a3      	str	r3, [r4, #8]
 8002f9e:	6823      	ldr	r3, [r4, #0]
 8002fa0:	f043 0301 	orr.w	r3, r3, #1
 8002fa4:	6023      	str	r3, [r4, #0]
 8002fa6:	f44f 7a80 	mov.w	sl, #256	@ 0x100
 8002faa:	f44f 1b04 	mov.w	fp, #2162688	@ 0x210000
 8002fae:	4630      	mov	r0, r6
 8002fb0:	f7fd f978 	bl	80002a4 <R_Pop>
 8002fb4:	4603      	mov	r3, r0
 8002fb6:	bb28      	cbnz	r0, 8003004 <main+0x228>
 8002fb8:	f895 204b 	ldrb.w	r2, [r5, #75]	@ 0x4b
 8002fbc:	2a04      	cmp	r2, #4
 8002fbe:	d1f6      	bne.n	8002fae <main+0x1d2>
 8002fc0:	2009      	movs	r0, #9
 8002fc2:	7038      	strb	r0, [r7, #0]
 8002fc4:	2202      	movs	r2, #2
 8002fc6:	f04f 0801 	mov.w	r8, #1
 8002fca:	a90e      	add	r1, sp, #56	@ 0x38
 8002fcc:	f04f 4090 	mov.w	r0, #1207959552	@ 0x48000000
 8002fd0:	f885 304c 	strb.w	r3, [r5, #76]	@ 0x4c
 8002fd4:	9311      	str	r3, [sp, #68]	@ 0x44
 8002fd6:	9312      	str	r3, [sp, #72]	@ 0x48
 8002fd8:	9301      	str	r3, [sp, #4]
 8002fda:	9210      	str	r2, [sp, #64]	@ 0x40
 8002fdc:	e9cd ab0e 	strd	sl, fp, [sp, #56]	@ 0x38
 8002fe0:	f887 8001 	strb.w	r8, [r7, #1]
 8002fe4:	f7fd fe50 	bl	8000c88 <HAL_GPIO_Init>
 8002fe8:	686a      	ldr	r2, [r5, #4]
 8002fea:	9b01      	ldr	r3, [sp, #4]
 8002fec:	702b      	strb	r3, [r5, #0]
 8002fee:	f885 8001 	strb.w	r8, [r5, #1]
 8002ff2:	4630      	mov	r0, r6
 8002ff4:	7013      	strb	r3, [r2, #0]
 8002ff6:	f885 304b 	strb.w	r3, [r5, #75]	@ 0x4b
 8002ffa:	f7fd f953 	bl	80002a4 <R_Pop>
 8002ffe:	4603      	mov	r3, r0
 8003000:	2800      	cmp	r0, #0
 8003002:	d0d9      	beq.n	8002fb8 <main+0x1dc>
 8003004:	6aaa      	ldr	r2, [r5, #40]	@ 0x28
 8003006:	7813      	ldrb	r3, [r2, #0]
 8003008:	f88d 3020 	strb.w	r3, [sp, #32]
 800300c:	f89d 3020 	ldrb.w	r3, [sp, #32]
 8003010:	2b15      	cmp	r3, #21
 8003012:	d024      	beq.n	800305e <main+0x282>
 8003014:	f89d 3020 	ldrb.w	r3, [sp, #32]
 8003018:	2b09      	cmp	r3, #9
 800301a:	d003      	beq.n	8003024 <main+0x248>
 800301c:	f89d 3020 	ldrb.w	r3, [sp, #32]
 8003020:	2b0c      	cmp	r3, #12
 8003022:	d1c4      	bne.n	8002fae <main+0x1d2>
 8003024:	f89d 1020 	ldrb.w	r1, [sp, #32]
 8003028:	2300      	movs	r3, #0
 800302a:	f885 304a 	strb.w	r3, [r5, #74]	@ 0x4a
 800302e:	f895 304a 	ldrb.w	r3, [r5, #74]	@ 0x4a
 8003032:	3101      	adds	r1, #1
 8003034:	b2c9      	uxtb	r1, r1
 8003036:	4299      	cmp	r1, r3
 8003038:	d9b9      	bls.n	8002fae <main+0x1d2>
 800303a:	69e3      	ldr	r3, [r4, #28]
 800303c:	061b      	lsls	r3, r3, #24
 800303e:	d5fc      	bpl.n	800303a <main+0x25e>
 8003040:	f895 304a 	ldrb.w	r3, [r5, #74]	@ 0x4a
 8003044:	5cd3      	ldrb	r3, [r2, r3]
 8003046:	8523      	strh	r3, [r4, #40]	@ 0x28
 8003048:	f895 304a 	ldrb.w	r3, [r5, #74]	@ 0x4a
 800304c:	3301      	adds	r3, #1
 800304e:	b2db      	uxtb	r3, r3
 8003050:	f885 304a 	strb.w	r3, [r5, #74]	@ 0x4a
 8003054:	f895 304a 	ldrb.w	r3, [r5, #74]	@ 0x4a
 8003058:	4299      	cmp	r1, r3
 800305a:	d8ee      	bhi.n	800303a <main+0x25e>
 800305c:	e7a7      	b.n	8002fae <main+0x1d2>
 800305e:	2300      	movs	r3, #0
 8003060:	f885 304a 	strb.w	r3, [r5, #74]	@ 0x4a
 8003064:	f895 304a 	ldrb.w	r3, [r5, #74]	@ 0x4a
 8003068:	2b15      	cmp	r3, #21
 800306a:	d8d3      	bhi.n	8003014 <main+0x238>
 800306c:	69e3      	ldr	r3, [r4, #28]
 800306e:	0619      	lsls	r1, r3, #24
 8003070:	d5fc      	bpl.n	800306c <main+0x290>
 8003072:	f895 304a 	ldrb.w	r3, [r5, #74]	@ 0x4a
 8003076:	5cd3      	ldrb	r3, [r2, r3]
 8003078:	8523      	strh	r3, [r4, #40]	@ 0x28
 800307a:	f895 304a 	ldrb.w	r3, [r5, #74]	@ 0x4a
 800307e:	3301      	adds	r3, #1
 8003080:	b2db      	uxtb	r3, r3
 8003082:	f885 304a 	strb.w	r3, [r5, #74]	@ 0x4a
 8003086:	f895 304a 	ldrb.w	r3, [r5, #74]	@ 0x4a
 800308a:	2b15      	cmp	r3, #21
 800308c:	d9ee      	bls.n	800306c <main+0x290>
 800308e:	e7c1      	b.n	8003014 <main+0x238>
 8003090:	20000120 	.word	0x20000120
 8003094:	40021000 	.word	0x40021000
 8003098:	48000800 	.word	0x48000800
 800309c:	40004400 	.word	0x40004400
 80030a0:	20000001 	.word	0x20000001
 80030a4:	20000148 	.word	0x20000148

080030a8 <Reset_Handler>:

    .section	.text.Reset_Handler
	.weak	Reset_Handler
	.type	Reset_Handler, %function
Reset_Handler:
  ldr   sp, =_estack    /* Atollic update: set stack pointer */
 80030a8:	f8df d034 	ldr.w	sp, [pc, #52]	@ 80030e0 <LoopForever+0x2>
  
/* Call the clock system initialization function.*/
    bl  SystemInit
 80030ac:	f7fd fb42 	bl	8000734 <SystemInit>

/* Copy the data segment initializers from flash to SRAM */
  ldr r0, =_sdata
 80030b0:	480c      	ldr	r0, [pc, #48]	@ (80030e4 <LoopForever+0x6>)
  ldr r1, =_edata
 80030b2:	490d      	ldr	r1, [pc, #52]	@ (80030e8 <LoopForever+0xa>)
  ldr r2, =_sidata
 80030b4:	4a0d      	ldr	r2, [pc, #52]	@ (80030ec <LoopForever+0xe>)
  movs r3, #0
 80030b6:	2300      	movs	r3, #0
  b LoopCopyDataInit
 80030b8:	e002      	b.n	80030c0 <LoopCopyDataInit>

080030ba <CopyDataInit>:

CopyDataInit:
  ldr r4, [r2, r3]
 80030ba:	58d4      	ldr	r4, [r2, r3]
  str r4, [r0, r3]
 80030bc:	50c4      	str	r4, [r0, r3]
  adds r3, r3, #4
 80030be:	3304      	adds	r3, #4

080030c0 <LoopCopyDataInit>:

LoopCopyDataInit:
  adds r4, r0, r3
 80030c0:	18c4      	adds	r4, r0, r3
  cmp r4, r1
 80030c2:	428c      	cmp	r4, r1
  bcc CopyDataInit
 80030c4:	d3f9      	bcc.n	80030ba <CopyDataInit>
  
/* Zero fill the bss segment. */
  ldr r2, =_sbss
 80030c6:	4a0a      	ldr	r2, [pc, #40]	@ (80030f0 <LoopForever+0x12>)
  ldr r4, =_ebss
 80030c8:	4c0a      	ldr	r4, [pc, #40]	@ (80030f4 <LoopForever+0x16>)
  movs r3, #0
 80030ca:	2300      	movs	r3, #0
  b LoopFillZerobss
 80030cc:	e001      	b.n	80030d2 <LoopFillZerobss>

080030ce <FillZerobss>:

FillZerobss:
  str  r3, [r2]
 80030ce:	6013      	str	r3, [r2, #0]
  adds r2, r2, #4
 80030d0:	3204      	adds	r2, #4

080030d2 <LoopFillZerobss>:

LoopFillZerobss:
  cmp r2, r4
 80030d2:	42a2      	cmp	r2, r4
  bcc FillZerobss
 80030d4:	d3fb      	bcc.n	80030ce <FillZerobss>

/* Call static constructors */
    bl __libc_init_array
 80030d6:	f000 f819 	bl	800310c <__libc_init_array>
/* Call the application's entry point.*/
	bl	main
 80030da:	f7ff fe7f 	bl	8002ddc <main>

080030de <LoopForever>:

LoopForever:
    b LoopForever
 80030de:	e7fe      	b.n	80030de <LoopForever>
  ldr   sp, =_estack    /* Atollic update: set stack pointer */
 80030e0:	20010000 	.word	0x20010000
  ldr r0, =_sdata
 80030e4:	20000000 	.word	0x20000000
  ldr r1, =_edata
 80030e8:	20000010 	.word	0x20000010
  ldr r2, =_sidata
 80030ec:	080031ec 	.word	0x080031ec
  ldr r2, =_sbss
 80030f0:	20000010 	.word	0x20000010
  ldr r4, =_ebss
 80030f4:	20000174 	.word	0x20000174

080030f8 <ADC1_2_IRQHandler>:
 * @retval : None
*/
    .section	.text.Default_Handler,"ax",%progbits
Default_Handler:
Infinite_Loop:
	b	Infinite_Loop
 80030f8:	e7fe      	b.n	80030f8 <ADC1_2_IRQHandler>

080030fa <memset>:
 80030fa:	4402      	add	r2, r0
 80030fc:	4603      	mov	r3, r0
 80030fe:	4293      	cmp	r3, r2
 8003100:	d100      	bne.n	8003104 <memset+0xa>
 8003102:	4770      	bx	lr
 8003104:	f803 1b01 	strb.w	r1, [r3], #1
 8003108:	e7f9      	b.n	80030fe <memset+0x4>
	...

0800310c <__libc_init_array>:
 800310c:	b570      	push	{r4, r5, r6, lr}
 800310e:	4d0d      	ldr	r5, [pc, #52]	@ (8003144 <__libc_init_array+0x38>)
 8003110:	4c0d      	ldr	r4, [pc, #52]	@ (8003148 <__libc_init_array+0x3c>)
 8003112:	1b64      	subs	r4, r4, r5
 8003114:	10a4      	asrs	r4, r4, #2
 8003116:	2600      	movs	r6, #0
 8003118:	42a6      	cmp	r6, r4
 800311a:	d109      	bne.n	8003130 <__libc_init_array+0x24>
 800311c:	4d0b      	ldr	r5, [pc, #44]	@ (800314c <__libc_init_array+0x40>)
 800311e:	4c0c      	ldr	r4, [pc, #48]	@ (8003150 <__libc_init_array+0x44>)
 8003120:	f000 f818 	bl	8003154 <_init>
 8003124:	1b64      	subs	r4, r4, r5
 8003126:	10a4      	asrs	r4, r4, #2
 8003128:	2600      	movs	r6, #0
 800312a:	42a6      	cmp	r6, r4
 800312c:	d105      	bne.n	800313a <__libc_init_array+0x2e>
 800312e:	bd70      	pop	{r4, r5, r6, pc}
 8003130:	f855 3b04 	ldr.w	r3, [r5], #4
 8003134:	4798      	blx	r3
 8003136:	3601      	adds	r6, #1
 8003138:	e7ee      	b.n	8003118 <__libc_init_array+0xc>
 800313a:	f855 3b04 	ldr.w	r3, [r5], #4
 800313e:	4798      	blx	r3
 8003140:	3601      	adds	r6, #1
 8003142:	e7f2      	b.n	800312a <__libc_init_array+0x1e>
 8003144:	080031e4 	.word	0x080031e4
 8003148:	080031e4 	.word	0x080031e4
 800314c:	080031e4 	.word	0x080031e4
 8003150:	080031e8 	.word	0x080031e8

08003154 <_init>:
 8003154:	b5f8      	push	{r3, r4, r5, r6, r7, lr}
 8003156:	bf00      	nop
 8003158:	bcf8      	pop	{r3, r4, r5, r6, r7}
 800315a:	bc08      	pop	{r3}
 800315c:	469e      	mov	lr, r3
 800315e:	4770      	bx	lr

08003160 <_fini>:
 8003160:	b5f8      	push	{r3, r4, r5, r6, r7, lr}
 8003162:	bf00      	nop
 8003164:	bcf8      	pop	{r3, r4, r5, r6, r7}
 8003166:	bc08      	pop	{r3}
 8003168:	469e      	mov	lr, r3
 800316a:	4770      	bx	lr
